
Smart-LCD_SW.elf:     file format elf32-avr

Sections:
Idx Name          Size      VMA       LMA       File off  Algn
  0 .data         00000248  00800100  00004662  000046f6  2**0
                  CONTENTS, ALLOC, LOAD, DATA
  1 .text         00004662  00000000  00000000  00000094  2**1
                  CONTENTS, ALLOC, LOAD, READONLY, CODE
  2 .bss          0000012e  00800348  00800348  0000493e  2**0
                  ALLOC
  3 .comment      0000005c  00000000  00000000  0000493e  2**0
                  CONTENTS, READONLY
  4 .note.gnu.avr.deviceinfo 00000040  00000000  00000000  0000499c  2**2
                  CONTENTS, READONLY
  5 .debug_aranges 000003f0  00000000  00000000  000049e0  2**3
                  CONTENTS, READONLY, DEBUGGING
  6 .debug_info   00007ae2  00000000  00000000  00004dd0  2**0
                  CONTENTS, READONLY, DEBUGGING
  7 .debug_abbrev 00001c7d  00000000  00000000  0000c8b2  2**0
                  CONTENTS, READONLY, DEBUGGING
  8 .debug_line   000039af  00000000  00000000  0000e52f  2**0
                  CONTENTS, READONLY, DEBUGGING
  9 .debug_frame  00001770  00000000  00000000  00011ee0  2**2
                  CONTENTS, READONLY, DEBUGGING
 10 .debug_str    00001f21  00000000  00000000  00013650  2**0
                  CONTENTS, READONLY, DEBUGGING
 11 .debug_loc    0000609f  00000000  00000000  00015571  2**0
                  CONTENTS, READONLY, DEBUGGING
 12 .debug_ranges 00000400  00000000  00000000  0001b610  2**0
                  CONTENTS, READONLY, DEBUGGING

Disassembly of section .text:

00000000 <__vectors>:
       0:	da c2       	rjmp	.+1460   	; 0x5b6 <__ctors_end>
       2:	00 00       	nop
       4:	0c 94 09 0c 	jmp	0x1812	; 0x1812 <__vector_1>
       8:	0c 94 e6 0b 	jmp	0x17cc	; 0x17cc <__vector_2>
       c:	0c 94 c3 0b 	jmp	0x1786	; 0x1786 <__vector_3>
      10:	0c 94 a0 0b 	jmp	0x1740	; 0x1740 <__vector_4>
      14:	0c 94 7d 0b 	jmp	0x16fa	; 0x16fa <__vector_5>
      18:	0c 94 5a 0b 	jmp	0x16b4	; 0x16b4 <__vector_6>
      1c:	0c 94 37 0b 	jmp	0x166e	; 0x166e <__vector_7>
      20:	0c 94 14 0b 	jmp	0x1628	; 0x1628 <__vector_8>
      24:	e8 c6       	rjmp	.+3536   	; 0xdf6 <__vector_9>
      26:	00 00       	nop
      28:	0c 94 f1 0a 	jmp	0x15e2	; 0x15e2 <__vector_10>
      2c:	0c 94 ce 0a 	jmp	0x159c	; 0x159c <__vector_11>
      30:	0c 94 ab 0a 	jmp	0x1556	; 0x1556 <__vector_12>
      34:	75 c7       	rjmp	.+3818   	; 0xf20 <__vector_13>
      36:	00 00       	nop
      38:	0c 94 88 0a 	jmp	0x1510	; 0x1510 <__vector_14>
      3c:	0c 94 65 0a 	jmp	0x14ca	; 0x14ca <__vector_15>
      40:	0c 94 42 0a 	jmp	0x1484	; 0x1484 <__vector_16>
      44:	0c 94 1f 0a 	jmp	0x143e	; 0x143e <__vector_17>
      48:	0c 94 fc 09 	jmp	0x13f8	; 0x13f8 <__vector_18>
      4c:	0c 94 d9 09 	jmp	0x13b2	; 0x13b2 <__vector_19>
      50:	0c 94 b6 09 	jmp	0x136c	; 0x136c <__vector_20>
      54:	0c 94 ae 08 	jmp	0x115c	; 0x115c <__vector_21>
      58:	0c 94 93 09 	jmp	0x1326	; 0x1326 <__vector_22>
      5c:	0c 94 70 09 	jmp	0x12e0	; 0x12e0 <__vector_23>
      60:	0c 94 1b 09 	jmp	0x1236	; 0x1236 <__vector_24>
      64:	0c 94 4d 09 	jmp	0x129a	; 0x129a <__vector_25>
      68:	e0 18       	sub	r14, r0
      6a:	ee 18       	sub	r14, r14
      6c:	fa 18       	sub	r15, r10
      6e:	04 19       	sub	r16, r4
      70:	10 19       	sub	r17, r0
      72:	18 19       	sub	r17, r8
      74:	75 19       	sub	r23, r5
      76:	75 19       	sub	r23, r5
      78:	22 19       	sub	r18, r2
      7a:	2c 19       	sub	r18, r12
      7c:	34 19       	sub	r19, r4
      7e:	3c 19       	sub	r19, r12
      80:	4a 19       	sub	r20, r10
      82:	58 19       	sub	r21, r8

00000084 <__trampolines_end>:
      84:	00 00       	nop
      86:	00 00       	nop
      88:	00 00       	nop
      8a:	00 20       	and	r0, r0
      8c:	20 20       	and	r2, r0
      8e:	20 20       	and	r2, r0
      90:	00 20       	and	r0, r0
      92:	50 50       	subi	r21, 0x00	; 0
      94:	50 00       	.word	0x0050	; ????
      96:	00 00       	nop
      98:	00 50       	subi	r16, 0x00	; 0
      9a:	50 f8       	bld	r5, 0
      9c:	50 f8       	bld	r5, 0
      9e:	50 50       	subi	r21, 0x00	; 0
      a0:	20 78       	andi	r18, 0x80	; 128
      a2:	a0 70       	andi	r26, 0x00	; 0
      a4:	28 f0       	brcs	.+10     	; 0xb0 <__trampolines_end+0x2c>
      a6:	20 c0       	rjmp	.+64     	; 0xe8 <__trampolines_end+0x64>
      a8:	c8 10       	cpse	r12, r8
      aa:	20 40       	sbci	r18, 0x00	; 0
      ac:	98 18       	sub	r9, r8
      ae:	60 90 a0 40 	lds	r6, 0x40A0	; 0x8040a0 <__bss_end+0x3c2a>
      b2:	a8 90       	.word	0x90a8	; ????
      b4:	68 60       	ori	r22, 0x08	; 8
      b6:	20 40       	sbci	r18, 0x00	; 0
      b8:	00 00       	nop
      ba:	00 00       	nop
      bc:	10 20       	and	r1, r0
      be:	40 40       	sbci	r20, 0x00	; 0
      c0:	40 20       	and	r4, r0
      c2:	10 40       	sbci	r17, 0x00	; 0
      c4:	20 10       	cpse	r2, r0
      c6:	10 10       	cpse	r1, r0
      c8:	20 40       	sbci	r18, 0x00	; 0
      ca:	00 50       	subi	r16, 0x00	; 0
      cc:	20 f8       	bld	r2, 0
      ce:	20 50       	subi	r18, 0x00	; 0
      d0:	00 00       	nop
      d2:	20 20       	and	r2, r0
      d4:	f8 20       	and	r15, r8
      d6:	20 00       	.word	0x0020	; ????
      d8:	00 00       	nop
      da:	00 00       	nop
      dc:	60 20       	and	r6, r0
      de:	40 00       	.word	0x0040	; ????
      e0:	00 00       	nop
      e2:	f8 00       	.word	0x00f8	; ????
      e4:	00 00       	nop
      e6:	00 00       	nop
      e8:	00 00       	nop
      ea:	00 60       	ori	r16, 0x00	; 0
      ec:	60 00       	.word	0x0060	; ????
      ee:	08 10       	cpse	r0, r8
      f0:	20 40       	sbci	r18, 0x00	; 0
      f2:	80 00       	.word	0x0080	; ????
      f4:	70 88       	ldd	r7, Z+16	; 0x10
      f6:	98 a8       	ldd	r9, Y+48	; 0x30
      f8:	c8 88       	ldd	r12, Y+16	; 0x10
      fa:	70 20       	and	r7, r0
      fc:	60 20       	and	r6, r0
      fe:	20 20       	and	r2, r0
     100:	20 70       	andi	r18, 0x00	; 0
     102:	70 88       	ldd	r7, Z+16	; 0x10
     104:	08 10       	cpse	r0, r8
     106:	20 40       	sbci	r18, 0x00	; 0
     108:	f8 f8       	.word	0xf8f8	; ????
     10a:	10 20       	and	r1, r0
     10c:	10 08       	sbc	r1, r0
     10e:	88 70       	andi	r24, 0x08	; 8
     110:	10 30       	cpi	r17, 0x00	; 0
     112:	50 90 f8 10 	lds	r5, 0x10F8	; 0x8010f8 <__bss_end+0xc82>
     116:	10 f8       	bld	r1, 0
     118:	80 f0       	brcs	.+32     	; 0x13a <__trampolines_end+0xb6>
     11a:	08 08       	sbc	r0, r8
     11c:	88 70       	andi	r24, 0x08	; 8
     11e:	30 40       	sbci	r19, 0x00	; 0
     120:	80 f0       	brcs	.+32     	; 0x142 <__trampolines_end+0xbe>
     122:	88 88       	ldd	r8, Y+16	; 0x10
     124:	70 f8       	bld	r7, 0
     126:	08 10       	cpse	r0, r8
     128:	20 40       	sbci	r18, 0x00	; 0
     12a:	40 40       	sbci	r20, 0x00	; 0
     12c:	70 88       	ldd	r7, Z+16	; 0x10
     12e:	88 70       	andi	r24, 0x08	; 8
     130:	88 88       	ldd	r8, Y+16	; 0x10
     132:	70 70       	andi	r23, 0x00	; 0
     134:	88 88       	ldd	r8, Y+16	; 0x10
     136:	78 08       	sbc	r7, r8
     138:	10 60       	ori	r17, 0x00	; 0
     13a:	00 60       	ori	r16, 0x00	; 0
     13c:	60 00       	.word	0x0060	; ????
     13e:	60 60       	ori	r22, 0x00	; 0
     140:	00 00       	nop
     142:	60 60       	ori	r22, 0x00	; 0
     144:	00 60       	ori	r16, 0x00	; 0
     146:	20 40       	sbci	r18, 0x00	; 0
     148:	08 10       	cpse	r0, r8
     14a:	20 40       	sbci	r18, 0x00	; 0
     14c:	20 10       	cpse	r2, r0
     14e:	08 00       	.word	0x0008	; ????
     150:	00 f8       	bld	r0, 0
     152:	00 f8       	bld	r0, 0
     154:	00 00       	nop
     156:	80 40       	sbci	r24, 0x00	; 0
     158:	20 10       	cpse	r2, r0
     15a:	20 40       	sbci	r18, 0x00	; 0
     15c:	80 70       	andi	r24, 0x00	; 0
     15e:	88 08       	sbc	r8, r8
     160:	10 20       	and	r1, r0
     162:	00 20       	and	r0, r0
     164:	70 88       	ldd	r7, Z+16	; 0x10
     166:	08 68       	ori	r16, 0x88	; 136
     168:	a8 a8       	ldd	r10, Y+48	; 0x30
     16a:	70 70       	andi	r23, 0x00	; 0
     16c:	88 88       	ldd	r8, Y+16	; 0x10
     16e:	88 f8       	.word	0xf888	; ????
     170:	88 88       	ldd	r8, Y+16	; 0x10
     172:	f0 88       	ldd	r15, Z+16	; 0x10
     174:	88 f0       	brcs	.+34     	; 0x198 <__trampolines_end+0x114>
     176:	88 88       	ldd	r8, Y+16	; 0x10
     178:	f0 70       	andi	r31, 0x00	; 0
     17a:	88 80       	ld	r8, Y
     17c:	80 80       	ld	r8, Z
     17e:	88 70       	andi	r24, 0x08	; 8
     180:	e0 90 88 88 	lds	r14, 0x8888	; 0x808888 <__bss_end+0x8412>
     184:	88 90       	.word	0x9088	; ????
     186:	e0 f8       	bld	r14, 0
     188:	80 80       	ld	r8, Z
     18a:	f0 80       	ld	r15, Z
     18c:	80 f8       	bld	r8, 0
     18e:	f8 80       	ld	r15, Y
     190:	80 e0       	ldi	r24, 0x00	; 0
     192:	80 80       	ld	r8, Z
     194:	80 70       	andi	r24, 0x00	; 0
     196:	88 80       	ld	r8, Y
     198:	80 98       	cbi	0x10, 0	; 16
     19a:	88 70       	andi	r24, 0x08	; 8
     19c:	88 88       	ldd	r8, Y+16	; 0x10
     19e:	88 f8       	.word	0xf888	; ????
     1a0:	88 88       	ldd	r8, Y+16	; 0x10
     1a2:	88 70       	andi	r24, 0x08	; 8
     1a4:	20 20       	and	r2, r0
     1a6:	20 20       	and	r2, r0
     1a8:	20 70       	andi	r18, 0x00	; 0
     1aa:	38 10       	cpse	r3, r8
     1ac:	10 10       	cpse	r1, r0
     1ae:	10 90 60 88 	lds	r1, 0x8860	; 0x808860 <__bss_end+0x83ea>
     1b2:	90 a0       	ldd	r9, Z+32	; 0x20
     1b4:	c0 a0       	ldd	r12, Z+32	; 0x20
     1b6:	90 88       	ldd	r9, Z+16	; 0x10
     1b8:	80 80       	ld	r8, Z
     1ba:	80 80       	ld	r8, Z
     1bc:	80 80       	ld	r8, Z
     1be:	f8 88       	ldd	r15, Y+16	; 0x10
     1c0:	d8 a8       	ldd	r13, Y+48	; 0x30
     1c2:	88 88       	ldd	r8, Y+16	; 0x10
     1c4:	88 88       	ldd	r8, Y+16	; 0x10
     1c6:	88 88       	ldd	r8, Y+16	; 0x10
     1c8:	c8 a8       	ldd	r12, Y+48	; 0x30
     1ca:	98 88       	ldd	r9, Y+16	; 0x10
     1cc:	88 70       	andi	r24, 0x08	; 8
     1ce:	88 88       	ldd	r8, Y+16	; 0x10
     1d0:	88 88       	ldd	r8, Y+16	; 0x10
     1d2:	88 70       	andi	r24, 0x08	; 8
     1d4:	f0 88       	ldd	r15, Z+16	; 0x10
     1d6:	88 f0       	brcs	.+34     	; 0x1fa <__trampolines_end+0x176>
     1d8:	80 80       	ld	r8, Z
     1da:	80 70       	andi	r24, 0x00	; 0
     1dc:	88 88       	ldd	r8, Y+16	; 0x10
     1de:	88 a8       	ldd	r8, Y+48	; 0x30
     1e0:	90 68       	ori	r25, 0x80	; 128
     1e2:	f0 88       	ldd	r15, Z+16	; 0x10
     1e4:	88 f0       	brcs	.+34     	; 0x208 <__trampolines_end+0x184>
     1e6:	a0 90 88 78 	lds	r10, 0x7888	; 0x807888 <__bss_end+0x7412>
     1ea:	80 80       	ld	r8, Z
     1ec:	70 08       	sbc	r7, r0
     1ee:	08 f0       	brcs	.+2      	; 0x1f2 <__trampolines_end+0x16e>
     1f0:	f8 20       	and	r15, r8
     1f2:	20 20       	and	r2, r0
     1f4:	20 20       	and	r2, r0
     1f6:	20 88       	ldd	r2, Z+16	; 0x10
     1f8:	88 88       	ldd	r8, Y+16	; 0x10
     1fa:	88 88       	ldd	r8, Y+16	; 0x10
     1fc:	88 70       	andi	r24, 0x08	; 8
     1fe:	88 88       	ldd	r8, Y+16	; 0x10
     200:	88 88       	ldd	r8, Y+16	; 0x10
     202:	88 50       	subi	r24, 0x08	; 8
     204:	20 88       	ldd	r2, Z+16	; 0x10
     206:	88 88       	ldd	r8, Y+16	; 0x10
     208:	a8 a8       	ldd	r10, Y+48	; 0x30
     20a:	d8 88       	ldd	r13, Y+16	; 0x10
     20c:	88 88       	ldd	r8, Y+16	; 0x10
     20e:	50 20       	and	r5, r0
     210:	50 88       	ldd	r5, Z+16	; 0x10
     212:	88 88       	ldd	r8, Y+16	; 0x10
     214:	88 50       	subi	r24, 0x08	; 8
     216:	20 20       	and	r2, r0
     218:	20 20       	and	r2, r0
     21a:	f8 08       	sbc	r15, r8
     21c:	10 20       	and	r1, r0
     21e:	40 80       	ld	r4, Z
     220:	f8 38       	cpi	r31, 0x88	; 136
     222:	20 20       	and	r2, r0
     224:	20 20       	and	r2, r0
     226:	20 38       	cpi	r18, 0x80	; 128
     228:	00 80       	ld	r0, Z
     22a:	40 20       	and	r4, r0
     22c:	10 08       	sbc	r1, r0
     22e:	00 e0       	ldi	r16, 0x00	; 0
     230:	20 20       	and	r2, r0
     232:	20 20       	and	r2, r0
     234:	20 e0       	ldi	r18, 0x00	; 0
     236:	20 50       	subi	r18, 0x00	; 0
     238:	88 00       	.word	0x0088	; ????
	...
     242:	00 f8       	bld	r0, 0
     244:	40 20       	and	r4, r0
     246:	10 00       	.word	0x0010	; ????
     248:	00 00       	nop
     24a:	00 00       	nop
     24c:	00 70       	andi	r16, 0x00	; 0
     24e:	08 78       	andi	r16, 0x88	; 136
     250:	88 78       	andi	r24, 0x88	; 136
     252:	80 80       	ld	r8, Z
     254:	b0 c8       	rjmp	.-3744   	; 0xfffff3b6 <__eeprom_end+0xff7ef3b6>
     256:	88 88       	ldd	r8, Y+16	; 0x10
     258:	f0 00       	.word	0x00f0	; ????
     25a:	00 70       	andi	r16, 0x00	; 0
     25c:	80 80       	ld	r8, Z
     25e:	88 70       	andi	r24, 0x08	; 8
     260:	08 08       	sbc	r0, r8
     262:	68 98       	cbi	0x0d, 0	; 13
     264:	88 88       	ldd	r8, Y+16	; 0x10
     266:	78 00       	.word	0x0078	; ????
     268:	00 70       	andi	r16, 0x00	; 0
     26a:	88 f8       	.word	0xf888	; ????
     26c:	80 70       	andi	r24, 0x00	; 0
     26e:	30 48       	sbci	r19, 0x80	; 128
     270:	40 e0       	ldi	r20, 0x00	; 0
     272:	40 40       	sbci	r20, 0x00	; 0
     274:	40 00       	.word	0x0040	; ????
     276:	00 78       	andi	r16, 0x80	; 128
     278:	88 78       	andi	r24, 0x88	; 136
     27a:	08 30       	cpi	r16, 0x08	; 8
     27c:	80 80       	ld	r8, Z
     27e:	b0 c8       	rjmp	.-3744   	; 0xfffff3e0 <__eeprom_end+0xff7ef3e0>
     280:	88 88       	ldd	r8, Y+16	; 0x10
     282:	88 20       	and	r8, r8
     284:	00 60       	ori	r16, 0x00	; 0
     286:	20 20       	and	r2, r0
     288:	20 70       	andi	r18, 0x00	; 0
     28a:	10 00       	.word	0x0010	; ????
     28c:	30 10       	cpse	r3, r0
     28e:	10 90 60 40 	lds	r1, 0x4060	; 0x804060 <__bss_end+0x3bea>
     292:	40 48       	sbci	r20, 0x80	; 128
     294:	50 60       	ori	r21, 0x00	; 0
     296:	50 48       	sbci	r21, 0x80	; 128
     298:	60 20       	and	r6, r0
     29a:	20 20       	and	r2, r0
     29c:	20 20       	and	r2, r0
     29e:	70 00       	.word	0x0070	; ????
     2a0:	00 d0       	rcall	.+0      	; 0x2a2 <__trampolines_end+0x21e>
     2a2:	a8 a8       	ldd	r10, Y+48	; 0x30
     2a4:	88 88       	ldd	r8, Y+16	; 0x10
     2a6:	00 00       	nop
     2a8:	b0 c8       	rjmp	.-3744   	; 0xfffff40a <__eeprom_end+0xff7ef40a>
     2aa:	88 88       	ldd	r8, Y+16	; 0x10
     2ac:	88 00       	.word	0x0088	; ????
     2ae:	00 70       	andi	r16, 0x00	; 0
     2b0:	88 88       	ldd	r8, Y+16	; 0x10
     2b2:	88 70       	andi	r24, 0x08	; 8
     2b4:	00 00       	nop
     2b6:	f0 88       	ldd	r15, Z+16	; 0x10
     2b8:	f0 80       	ld	r15, Z
     2ba:	80 00       	.word	0x0080	; ????
     2bc:	00 68       	ori	r16, 0x80	; 128
     2be:	98 78       	andi	r25, 0x88	; 136
     2c0:	08 08       	sbc	r0, r8
     2c2:	00 00       	nop
     2c4:	b0 c8       	rjmp	.-3744   	; 0xfffff426 <__eeprom_end+0xff7ef426>
     2c6:	80 80       	ld	r8, Z
     2c8:	80 00       	.word	0x0080	; ????
     2ca:	00 70       	andi	r16, 0x00	; 0
     2cc:	80 70       	andi	r24, 0x00	; 0
     2ce:	08 f0       	brcs	.+2      	; 0x2d2 <__trampolines_end+0x24e>
     2d0:	40 40       	sbci	r20, 0x00	; 0
     2d2:	e0 40       	sbci	r30, 0x00	; 0
     2d4:	40 48       	sbci	r20, 0x80	; 128
     2d6:	30 00       	.word	0x0030	; ????
     2d8:	00 88       	ldd	r0, Z+16	; 0x10
     2da:	88 88       	ldd	r8, Y+16	; 0x10
     2dc:	98 68       	ori	r25, 0x88	; 136
     2de:	00 00       	nop
     2e0:	88 88       	ldd	r8, Y+16	; 0x10
     2e2:	88 50       	subi	r24, 0x08	; 8
     2e4:	20 00       	.word	0x0020	; ????
     2e6:	00 88       	ldd	r0, Z+16	; 0x10
     2e8:	88 a8       	ldd	r8, Y+48	; 0x30
     2ea:	a8 50       	subi	r26, 0x08	; 8
     2ec:	00 00       	nop
     2ee:	88 50       	subi	r24, 0x08	; 8
     2f0:	20 50       	subi	r18, 0x00	; 0
     2f2:	88 00       	.word	0x0088	; ????
     2f4:	00 88       	ldd	r0, Z+16	; 0x10
     2f6:	88 78       	andi	r24, 0x88	; 136
     2f8:	08 70       	andi	r16, 0x08	; 8
     2fa:	00 00       	nop
     2fc:	f8 10       	cpse	r15, r8
     2fe:	20 40       	sbci	r18, 0x00	; 0
     300:	f8 10       	cpse	r15, r8
     302:	20 20       	and	r2, r0
     304:	40 20       	and	r4, r0
     306:	20 10       	cpse	r2, r0
     308:	20 20       	and	r2, r0
     30a:	20 20       	and	r2, r0
     30c:	20 20       	and	r2, r0
     30e:	20 40       	sbci	r18, 0x00	; 0
     310:	20 20       	and	r2, r0
     312:	10 20       	and	r1, r0
     314:	20 40       	sbci	r18, 0x00	; 0
     316:	20 50       	subi	r18, 0x00	; 0
     318:	20 00       	.word	0x0020	; ????
     31a:	00 00       	nop
	...

0000031d <sysfont_glyphs>:
     31d:	00 00 00 00 00 00 00 20 20 20 20 20 00 20 50 50     .......     . PP
     32d:	50 00 00 00 00 50 50 f8 50 f8 50 50 20 78 a0 70     P....PP.P.PP x.p
     33d:	28 f0 20 c0 c8 10 20 40 98 18 60 90 a0 40 a8 90     (. ... @..`..@..
     34d:	68 60 20 40 00 00 00 00 10 20 40 40 40 20 10 40     h` @..... @@@ .@
     35d:	20 10 10 10 20 40 00 50 20 f8 20 50 00 00 20 20      ... @.P . P..  
     36d:	f8 20 20 00 00 00 00 00 60 20 40 00 00 00 f8 00     .  .....` @.....
     37d:	00 00 00 00 00 00 00 60 60 00 08 10 20 40 80 00     .......``... @..
     38d:	70 88 98 a8 c8 88 70 20 60 20 20 20 20 70 70 88     p.....p `    pp.
     39d:	08 10 20 40 f8 f8 10 20 10 08 88 70 10 30 50 90     .. @... ...p.0P.
     3ad:	f8 10 10 f8 80 f0 08 08 88 70 30 40 80 f0 88 88     .........p0@....
     3bd:	70 f8 08 10 20 40 40 40 70 88 88 70 88 88 70 70     p... @@@p..p..pp
     3cd:	88 88 78 08 10 60 00 60 60 00 60 60 00 00 60 60     ..x..`.``.``..``
     3dd:	00 60 20 40 08 10 20 40 20 10 08 00 00 f8 00 f8     .` @.. @ .......
     3ed:	00 00 80 40 20 10 20 40 80 70 88 08 10 20 00 20     ...@ . @.p... . 
     3fd:	70 88 08 68 a8 a8 70 70 88 88 88 f8 88 88 f0 88     p..h..pp........
     40d:	88 f0 88 88 f0 70 88 80 80 80 88 70 e0 90 88 88     .....p.....p....
     41d:	88 90 e0 f8 80 80 f0 80 80 f8 f8 80 80 e0 80 80     ................
     42d:	80 70 88 80 80 98 88 70 88 88 88 f8 88 88 88 70     .p.....p.......p
     43d:	20 20 20 20 20 70 38 10 10 10 10 90 60 88 90 a0          p8.....`...
     44d:	c0 a0 90 88 80 80 80 80 80 80 f8 88 d8 a8 88 88     ................
     45d:	88 88 88 88 c8 a8 98 88 88 70 88 88 88 88 88 70     .........p.....p
     46d:	f0 88 88 f0 80 80 80 70 88 88 88 a8 90 68 f0 88     .......p.....h..
     47d:	88 f0 a0 90 88 78 80 80 70 08 08 f0 f8 20 20 20     .....x..p....   
     48d:	20 20 20 88 88 88 88 88 88 70 88 88 88 88 88 50        ......p.....P
     49d:	20 88 88 88 a8 a8 d8 88 88 88 50 20 50 88 88 88      .........P P...
     4ad:	88 50 20 20 20 20 f8 08 10 20 40 80 f8 38 20 20     .P    ... @..8  
     4bd:	20 20 20 38 00 80 40 20 10 08 00 e0 20 20 20 20        8..@ ....    
     4cd:	20 e0 20 50 88 00 00 00 00 00 00 00 00 00 00 f8      . P............
     4dd:	40 20 10 00 00 00 00 00 00 70 08 78 88 78 80 80     @ .......p.x.x..
     4ed:	b0 c8 88 88 f0 00 00 70 80 80 88 70 08 08 68 98     .......p...p..h.
     4fd:	88 88 78 00 00 70 88 f8 80 70 30 48 40 e0 40 40     ..x..p...p0H@.@@
     50d:	40 00 00 78 88 78 08 30 80 80 b0 c8 88 88 88 20     @..x.x.0....... 
     51d:	00 60 20 20 20 70 10 00 30 10 10 90 60 40 40 48     .`   p..0...`@@H
     52d:	50 60 50 48 60 20 20 20 20 20 70 00 00 d0 a8 a8     P`PH`     p.....
     53d:	88 88 00 00 b0 c8 88 88 88 00 00 70 88 88 88 70     ...........p...p
     54d:	00 00 f0 88 f0 80 80 00 00 68 98 78 08 08 00 00     .........h.x....
     55d:	b0 c8 80 80 80 00 00 70 80 70 08 f0 40 40 e0 40     .......p.p..@@.@
     56d:	40 48 30 00 00 88 88 88 98 68 00 00 88 88 88 50     @H0......h.....P
     57d:	20 00 00 88 88 a8 a8 50 00 00 88 50 20 50 88 00      ......P...P P..
     58d:	00 88 88 78 08 70 00 00 f8 10 20 40 f8 10 20 20     ...x.p.... @..  
     59d:	40 20 20 10 20 20 20 20 20 20 20 40 20 20 10 20     @  .       @  . 
     5ad:	20 40 20 50 20 00 00 00 00                           @ P ....

000005b6 <__ctors_end>:
     5b6:	11 24       	eor	r1, r1
     5b8:	1f be       	out	0x3f, r1	; 63
     5ba:	cf ef       	ldi	r28, 0xFF	; 255
     5bc:	d8 e0       	ldi	r29, 0x08	; 8
     5be:	de bf       	out	0x3e, r29	; 62
     5c0:	cd bf       	out	0x3d, r28	; 61

000005c2 <__do_copy_data>:
     5c2:	13 e0       	ldi	r17, 0x03	; 3
     5c4:	a0 e0       	ldi	r26, 0x00	; 0
     5c6:	b1 e0       	ldi	r27, 0x01	; 1
     5c8:	e2 e6       	ldi	r30, 0x62	; 98
     5ca:	f6 e4       	ldi	r31, 0x46	; 70
     5cc:	02 c0       	rjmp	.+4      	; 0x5d2 <__do_copy_data+0x10>
     5ce:	05 90       	lpm	r0, Z+
     5d0:	0d 92       	st	X+, r0
     5d2:	a8 34       	cpi	r26, 0x48	; 72
     5d4:	b1 07       	cpc	r27, r17
     5d6:	d9 f7       	brne	.-10     	; 0x5ce <__do_copy_data+0xc>

000005d8 <__do_clear_bss>:
     5d8:	24 e0       	ldi	r18, 0x04	; 4
     5da:	a8 e4       	ldi	r26, 0x48	; 72
     5dc:	b3 e0       	ldi	r27, 0x03	; 3
     5de:	01 c0       	rjmp	.+2      	; 0x5e2 <.do_clear_bss_start>

000005e0 <.do_clear_bss_loop>:
     5e0:	1d 92       	st	X+, r1

000005e2 <.do_clear_bss_start>:
     5e2:	a6 37       	cpi	r26, 0x76	; 118
     5e4:	b2 07       	cpc	r27, r18
     5e6:	e1 f7       	brne	.-8      	; 0x5e0 <.do_clear_bss_loop>
     5e8:	0e 94 4f 1c 	call	0x389e	; 0x389e <main>
     5ec:	0c 94 2f 23 	jmp	0x465e	; 0x465e <_exit>

000005f0 <board_init>:
#include <asf.h>
#include <board.h>
#include <conf_board.h>

void board_init(void)
{
     5f0:	08 95       	ret

000005f2 <sysclk_init>:

/**
 *  Function to initialize the clock and disable clock for not required modules.
 */
void sysclk_init(void)
{
     5f2:	cf 93       	push	r28
     5f4:	df 93       	push	r29
     5f6:	1f 92       	push	r1
     5f8:	cd b7       	in	r28, 0x3d	; 61
     5fa:	de b7       	in	r29, 0x3e	; 62
	/* Turn off all peripheral clocks that can be turned off.
	 * The debugWIRE system of some devices that shares system clock with the SPI module.
	 * Thus the PRSPI bit in the PRR register must not be set when debugging.
	 */
	for (i = 0; i < NUMBER_OF_POWER_REG; i++) {
		*(reg++) = 0xFF;
     5fc:	8f ef       	ldi	r24, 0xFF	; 255
     5fe:	80 93 64 00 	sts	0x0064, r24	; 0x800064 <__TEXT_REGION_LENGTH__+0x7e0064>

typedef uint8_t irqflags_t;

static inline irqflags_t cpu_irq_save(void)
{
	volatile irqflags_t flags = SREG;
     602:	8f b7       	in	r24, 0x3f	; 63
     604:	89 83       	std	Y+1, r24	; 0x01
	cpu_irq_disable();
     606:	f8 94       	cli
	return flags;
     608:	89 81       	ldd	r24, Y+1	; 0x01
static inline void sysclk_set_prescalers(uint8_t psdiv)
{
#if !MEGA_UNSPECIFIED
	irqflags_t flags = cpu_irq_save();

	ASM(
     60a:	5f 93       	push	r21
     60c:	50 e8       	ldi	r21, 0x80	; 128
     60e:	50 93 61 00 	sts	0x0061, r21	; 0x800061 <__TEXT_REGION_LENGTH__+0x7e0061>
     612:	50 e0       	ldi	r21, 0x00	; 0
     614:	50 93 61 00 	sts	0x0061, r21	; 0x800061 <__TEXT_REGION_LENGTH__+0x7e0061>
     618:	5f 91       	pop	r21
}

static inline void cpu_irq_restore(irqflags_t flags)
{
	barrier();
	SREG = flags;
     61a:	8f bf       	out	0x3f, r24	; 63
	if ((CONFIG_SYSCLK_PSDIV != SYSCLK_PSDIV_8) ||
			(SYSCLK_PSDIV_8 != CLKPR)) {
		sysclk_set_prescalers(CONFIG_SYSCLK_PSDIV);
	}
#endif
}
     61c:	0f 90       	pop	r0
     61e:	df 91       	pop	r29
     620:	cf 91       	pop	r28
     622:	08 95       	ret

00000624 <sysclk_enable_module>:
 * \param port ID of the port to which the module is connected (one of
 * the \c power_red_id *definitions).
 * \param id The ID (bitmask) of the peripheral module to be enabled.
 */
void sysclk_enable_module(enum power_red_id port, uint8_t id)
{
     624:	cf 93       	push	r28
     626:	df 93       	push	r29
     628:	1f 92       	push	r1
     62a:	cd b7       	in	r28, 0x3d	; 61
     62c:	de b7       	in	r29, 0x3e	; 62

typedef uint8_t irqflags_t;

static inline irqflags_t cpu_irq_save(void)
{
	volatile irqflags_t flags = SREG;
     62e:	9f b7       	in	r25, 0x3f	; 63
     630:	99 83       	std	Y+1, r25	; 0x01
	cpu_irq_disable();
     632:	f8 94       	cli
	return flags;
     634:	99 81       	ldd	r25, Y+1	; 0x01
#if !MEGA_UNSPECIFIED && !MEGA_XX
	uint8_t *reg = (uint8_t *)&(POWER_REG_ADD);
	irqflags_t flags = cpu_irq_save();

	if (port < NUMBER_OF_POWER_REG) {
     636:	81 11       	cpse	r24, r1
     638:	06 c0       	rjmp	.+12     	; 0x646 <sysclk_enable_module+0x22>
		*(reg + port)  &= ~id;
     63a:	60 95       	com	r22
     63c:	80 91 64 00 	lds	r24, 0x0064	; 0x800064 <__TEXT_REGION_LENGTH__+0x7e0064>
     640:	68 23       	and	r22, r24
     642:	60 93 64 00 	sts	0x0064, r22	; 0x800064 <__TEXT_REGION_LENGTH__+0x7e0064>
}

static inline void cpu_irq_restore(irqflags_t flags)
{
	barrier();
	SREG = flags;
     646:	9f bf       	out	0x3f, r25	; 63
	}
	cpu_irq_restore(flags);
#endif
}
     648:	0f 90       	pop	r0
     64a:	df 91       	pop	r29
     64c:	cf 91       	pop	r28
     64e:	08 95       	ret

00000650 <sysclk_disable_module>:
 * \param port ID of the port to which the module is connected (one of
 * the \c power_red_id *definitions).
 * \param id The ID (bit mask) of the peripheral module to be disabled.
 */
void sysclk_disable_module( enum power_red_id port, uint8_t id)
{
     650:	cf 93       	push	r28
     652:	df 93       	push	r29
     654:	1f 92       	push	r1
     656:	cd b7       	in	r28, 0x3d	; 61
     658:	de b7       	in	r29, 0x3e	; 62

typedef uint8_t irqflags_t;

static inline irqflags_t cpu_irq_save(void)
{
	volatile irqflags_t flags = SREG;
     65a:	9f b7       	in	r25, 0x3f	; 63
     65c:	99 83       	std	Y+1, r25	; 0x01
	cpu_irq_disable();
     65e:	f8 94       	cli
	return flags;
     660:	99 81       	ldd	r25, Y+1	; 0x01
#if !MEGA_UNSPECIFIED && !MEGA_XX
	uint8_t *reg = (uint8_t *)&(POWER_REG_ADD);
	irqflags_t flags = cpu_irq_save();
	if (port < NUMBER_OF_POWER_REG) {
     662:	81 11       	cpse	r24, r1
     664:	05 c0       	rjmp	.+10     	; 0x670 <sysclk_disable_module+0x20>
		*(reg + port) |= id;
     666:	80 91 64 00 	lds	r24, 0x0064	; 0x800064 <__TEXT_REGION_LENGTH__+0x7e0064>
     66a:	68 2b       	or	r22, r24
     66c:	60 93 64 00 	sts	0x0064, r22	; 0x800064 <__TEXT_REGION_LENGTH__+0x7e0064>
}

static inline void cpu_irq_restore(irqflags_t flags)
{
	barrier();
	SREG = flags;
     670:	9f bf       	out	0x3f, r25	; 63
	}
	cpu_irq_restore(flags);
#endif
}
     672:	0f 90       	pop	r0
     674:	df 91       	pop	r29
     676:	cf 91       	pop	r28
     678:	08 95       	ret

0000067a <gfx_mono_generic_draw_horizontal_line>:
 * \param  length     Length of the line in pixels.
 * \param  color      Pixel operation of the line.
 */
void gfx_mono_generic_draw_horizontal_line(gfx_coord_t x, gfx_coord_t y,
		gfx_coord_t length, enum gfx_mono_color color)
{
     67a:	ff 92       	push	r15
     67c:	0f 93       	push	r16
     67e:	1f 93       	push	r17
     680:	cf 93       	push	r28
     682:	df 93       	push	r29
     684:	08 2f       	mov	r16, r24
	uint8_t page;
	uint8_t pixelmask;
	uint8_t temp;

	/* Clip line length if too long */
	if (x + length > GFX_MONO_LCD_WIDTH) {
     686:	84 2f       	mov	r24, r20
     688:	90 e0       	ldi	r25, 0x00	; 0
     68a:	80 0f       	add	r24, r16
     68c:	91 1d       	adc	r25, r1
     68e:	81 3f       	cpi	r24, 0xF1	; 241
     690:	91 05       	cpc	r25, r1
     692:	14 f0       	brlt	.+4      	; 0x698 <gfx_mono_generic_draw_horizontal_line+0x1e>
		length = GFX_MONO_LCD_WIDTH - x;
     694:	40 ef       	ldi	r20, 0xF0	; 240
     696:	40 1b       	sub	r20, r16
	}

	page = y / 8;
	pixelmask = (1 << (y - (page * 8)));

	if (length == 0) {
     698:	44 23       	and	r20, r20
     69a:	09 f4       	brne	.+2      	; 0x69e <gfx_mono_generic_draw_horizontal_line+0x24>
     69c:	47 c0       	rjmp	.+142    	; 0x72c <gfx_mono_generic_draw_horizontal_line+0xb2>
	/* Clip line length if too long */
	if (x + length > GFX_MONO_LCD_WIDTH) {
		length = GFX_MONO_LCD_WIDTH - x;
	}

	page = y / 8;
     69e:	d6 2f       	mov	r29, r22
     6a0:	d6 95       	lsr	r29
     6a2:	d6 95       	lsr	r29
     6a4:	d6 95       	lsr	r29
	pixelmask = (1 << (y - (page * 8)));
     6a6:	70 e0       	ldi	r23, 0x00	; 0
     6a8:	88 e0       	ldi	r24, 0x08	; 8
     6aa:	d8 9f       	mul	r29, r24
     6ac:	60 19       	sub	r22, r0
     6ae:	71 09       	sbc	r23, r1
     6b0:	11 24       	eor	r1, r1
     6b2:	81 e0       	ldi	r24, 0x01	; 1
     6b4:	90 e0       	ldi	r25, 0x00	; 0
     6b6:	01 c0       	rjmp	.+2      	; 0x6ba <gfx_mono_generic_draw_horizontal_line+0x40>
     6b8:	88 0f       	add	r24, r24
     6ba:	6a 95       	dec	r22
     6bc:	ea f7       	brpl	.-6      	; 0x6b8 <gfx_mono_generic_draw_horizontal_line+0x3e>
     6be:	f8 2e       	mov	r15, r24
	if (length == 0) {
		/* Nothing to do. Move along. */
		return;
	}

	switch (color) {
     6c0:	21 30       	cpi	r18, 0x01	; 1
     6c2:	31 f0       	breq	.+12     	; 0x6d0 <gfx_mono_generic_draw_horizontal_line+0x56>
     6c4:	40 f0       	brcs	.+16     	; 0x6d6 <gfx_mono_generic_draw_horizontal_line+0x5c>
     6c6:	22 30       	cpi	r18, 0x02	; 2
     6c8:	89 f5       	brne	.+98     	; 0x72c <gfx_mono_generic_draw_horizontal_line+0xb2>
     6ca:	cf ef       	ldi	r28, 0xFF	; 255
     6cc:	c4 0f       	add	r28, r20
     6ce:	22 c0       	rjmp	.+68     	; 0x714 <gfx_mono_generic_draw_horizontal_line+0x9a>
     6d0:	cf ef       	ldi	r28, 0xFF	; 255
     6d2:	c4 0f       	add	r28, r20
     6d4:	05 c0       	rjmp	.+10     	; 0x6e0 <gfx_mono_generic_draw_horizontal_line+0x66>
     6d6:	cf ef       	ldi	r28, 0xFF	; 255
     6d8:	c4 0f       	add	r28, r20
		break;

	case GFX_PIXEL_CLR:
		while (length-- > 0) {
			temp = gfx_mono_get_byte(page, x + length);
			temp &= ~pixelmask;
     6da:	18 2f       	mov	r17, r24
     6dc:	10 95       	com	r17
     6de:	0d c0       	rjmp	.+26     	; 0x6fa <gfx_mono_generic_draw_horizontal_line+0x80>
     6e0:	10 2f       	mov	r17, r16
     6e2:	1c 0f       	add	r17, r28
	}

	switch (color) {
	case GFX_PIXEL_SET:
		while (length-- > 0) {
			temp = gfx_mono_get_byte(page, x + length);
     6e4:	61 2f       	mov	r22, r17
     6e6:	8d 2f       	mov	r24, r29
     6e8:	af d2       	rcall	.+1374   	; 0xc48 <gfx_mono_lcd_uc1608_get_byte>
			temp |= pixelmask;
			gfx_mono_put_byte(page, x + length, temp);
     6ea:	4f 2d       	mov	r20, r15
     6ec:	48 2b       	or	r20, r24
     6ee:	61 2f       	mov	r22, r17
     6f0:	8d 2f       	mov	r24, r29
     6f2:	98 d2       	rcall	.+1328   	; 0xc24 <gfx_mono_lcd_uc1608_put_byte>
     6f4:	c1 50       	subi	r28, 0x01	; 1
     6f6:	a0 f7       	brcc	.-24     	; 0x6e0 <gfx_mono_generic_draw_horizontal_line+0x66>
     6f8:	19 c0       	rjmp	.+50     	; 0x72c <gfx_mono_generic_draw_horizontal_line+0xb2>
     6fa:	f0 2e       	mov	r15, r16
		}
		break;

	case GFX_PIXEL_CLR:
		while (length-- > 0) {
			temp = gfx_mono_get_byte(page, x + length);
     6fc:	fc 0e       	add	r15, r28
     6fe:	6f 2d       	mov	r22, r15
     700:	8d 2f       	mov	r24, r29
			temp &= ~pixelmask;
     702:	a2 d2       	rcall	.+1348   	; 0xc48 <gfx_mono_lcd_uc1608_get_byte>
			gfx_mono_put_byte(page, x + length, temp);
     704:	41 2f       	mov	r20, r17
     706:	48 23       	and	r20, r24
     708:	6f 2d       	mov	r22, r15
     70a:	8d 2f       	mov	r24, r29
     70c:	8b d2       	rcall	.+1302   	; 0xc24 <gfx_mono_lcd_uc1608_put_byte>
     70e:	c1 50       	subi	r28, 0x01	; 1
     710:	a0 f7       	brcc	.-24     	; 0x6fa <gfx_mono_generic_draw_horizontal_line+0x80>
     712:	0c c0       	rjmp	.+24     	; 0x72c <gfx_mono_generic_draw_horizontal_line+0xb2>
		}
		break;

	case GFX_PIXEL_XOR:
		while (length-- > 0) {
			temp = gfx_mono_get_byte(page, x + length);
     714:	10 2f       	mov	r17, r16
     716:	1c 0f       	add	r17, r28
     718:	61 2f       	mov	r22, r17
			temp ^= pixelmask;
			gfx_mono_put_byte(page, x + length, temp);
     71a:	8d 2f       	mov	r24, r29
     71c:	95 d2       	rcall	.+1322   	; 0xc48 <gfx_mono_lcd_uc1608_get_byte>
     71e:	4f 2d       	mov	r20, r15
     720:	48 27       	eor	r20, r24
     722:	61 2f       	mov	r22, r17
     724:	8d 2f       	mov	r24, r29
     726:	7e d2       	rcall	.+1276   	; 0xc24 <gfx_mono_lcd_uc1608_put_byte>
     728:	c1 50       	subi	r28, 0x01	; 1
		break;

	default:
		break;
	}
}
     72a:	a0 f7       	brcc	.-24     	; 0x714 <gfx_mono_generic_draw_horizontal_line+0x9a>
     72c:	df 91       	pop	r29
     72e:	cf 91       	pop	r28
     730:	1f 91       	pop	r17
     732:	0f 91       	pop	r16
     734:	ff 90       	pop	r15
     736:	08 95       	ret

00000738 <gfx_mono_generic_draw_vertical_line>:
 * \param  length     Length of the line in pixels.
 * \param  color      Pixel operation of the line.
 */
void gfx_mono_generic_draw_vertical_line(gfx_coord_t x, gfx_coord_t y,
		gfx_coord_t length, enum gfx_mono_color color)
{
     738:	ef 92       	push	r14
     73a:	ff 92       	push	r15
     73c:	0f 93       	push	r16
     73e:	1f 93       	push	r17
     740:	cf 93       	push	r28
     742:	df 93       	push	r29
     744:	94 2f       	mov	r25, r20
	if (length == 0) {
     746:	44 23       	and	r20, r20
     748:	09 f4       	brne	.+2      	; 0x74c <gfx_mono_generic_draw_vertical_line+0x14>
     74a:	46 c0       	rjmp	.+140    	; 0x7d8 <gfx_mono_generic_draw_vertical_line+0xa0>
		return;
	}

	gfx_coord_t y2 = y + length - 1;
     74c:	4f ef       	ldi	r20, 0xFF	; 255
     74e:	46 0f       	add	r20, r22
     750:	94 0f       	add	r25, r20

	if (y == y2) {
     752:	69 13       	cpse	r22, r25
     754:	08 c0       	rjmp	.+16     	; 0x766 <gfx_mono_generic_draw_vertical_line+0x2e>
		gfx_mono_draw_pixel(x, y, color);
     756:	42 2f       	mov	r20, r18
			gfx_mono_mask_byte(y1page, x, 0xFF, color);
		}

		gfx_mono_mask_byte(y2page, x, y2pixelmask, color);
	}
}
     758:	df 91       	pop	r29
     75a:	cf 91       	pop	r28
     75c:	1f 91       	pop	r17
     75e:	0f 91       	pop	r16
     760:	ff 90       	pop	r15
	}

	gfx_coord_t y2 = y + length - 1;

	if (y == y2) {
		gfx_mono_draw_pixel(x, y, color);
     762:	ef 90       	pop	r14
		return;
	}

	if (y2 >= GFX_MONO_LCD_HEIGHT - 1) {
     764:	a4 c2       	rjmp	.+1352   	; 0xcae <gfx_mono_lcd_uc1608_draw_pixel>
     766:	9f 37       	cpi	r25, 0x7F	; 127
		y2 = GFX_MONO_LCD_HEIGHT - 1;
     768:	08 f0       	brcs	.+2      	; 0x76c <gfx_mono_generic_draw_vertical_line+0x34>
	}

	gfx_coord_t y1page = y / 8;
     76a:	9f e7       	ldi	r25, 0x7F	; 127
     76c:	16 2f       	mov	r17, r22
     76e:	16 95       	lsr	r17
     770:	16 95       	lsr	r17
	gfx_coord_t y2page = y2 / 8;
     772:	16 95       	lsr	r17
     774:	09 2f       	mov	r16, r25
     776:	06 95       	lsr	r16
     778:	06 95       	lsr	r16

	uint8_t y1bitpos = y & 0x07;
	uint8_t y2bitpos = y2 & 0x07;

	uint8_t y1pixelmask = 0xFF << y1bitpos;
     77a:	06 95       	lsr	r16
     77c:	67 70       	andi	r22, 0x07	; 7
     77e:	ef ef       	ldi	r30, 0xFF	; 255
     780:	f0 e0       	ldi	r31, 0x00	; 0
     782:	af 01       	movw	r20, r30
     784:	01 c0       	rjmp	.+2      	; 0x788 <gfx_mono_generic_draw_vertical_line+0x50>
     786:	44 0f       	add	r20, r20
     788:	6a 95       	dec	r22
	uint8_t y2pixelmask = 0xFF >> (7 - y2bitpos);
     78a:	ea f7       	brpl	.-6      	; 0x786 <gfx_mono_generic_draw_vertical_line+0x4e>
     78c:	97 70       	andi	r25, 0x07	; 7
     78e:	67 e0       	ldi	r22, 0x07	; 7
     790:	70 e0       	ldi	r23, 0x00	; 0
     792:	69 1b       	sub	r22, r25
     794:	71 09       	sbc	r23, r1
     796:	7f 01       	movw	r14, r30
     798:	02 c0       	rjmp	.+4      	; 0x79e <gfx_mono_generic_draw_vertical_line+0x66>
     79a:	f5 94       	asr	r15
     79c:	e7 94       	ror	r14
     79e:	6a 95       	dec	r22

	/* The pixels are on the same page; combine masks */
	if (y1page == y2page) {
     7a0:	e2 f7       	brpl	.-8      	; 0x79a <gfx_mono_generic_draw_vertical_line+0x62>
     7a2:	10 13       	cpse	r17, r16
		uint8_t pixelmask = y1pixelmask & y2pixelmask;
		gfx_mono_mask_byte(y1page, x, pixelmask, color);
     7a4:	04 c0       	rjmp	.+8      	; 0x7ae <gfx_mono_generic_draw_vertical_line+0x76>
     7a6:	4e 21       	and	r20, r14
     7a8:	68 2f       	mov	r22, r24
     7aa:	81 2f       	mov	r24, r17
     7ac:	0e c0       	rjmp	.+28     	; 0x7ca <gfx_mono_generic_draw_vertical_line+0x92>
     7ae:	d2 2f       	mov	r29, r18
	} else {
		gfx_mono_mask_byte(y1page, x, y1pixelmask, color);

		while (++y1page < y2page) {
			gfx_mono_mask_byte(y1page, x, 0xFF, color);
     7b0:	c8 2f       	mov	r28, r24
     7b2:	6c 2f       	mov	r22, r28
     7b4:	81 2f       	mov	r24, r17
		uint8_t pixelmask = y1pixelmask & y2pixelmask;
		gfx_mono_mask_byte(y1page, x, pixelmask, color);
	} else {
		gfx_mono_mask_byte(y1page, x, y1pixelmask, color);

		while (++y1page < y2page) {
     7b6:	56 d2       	rcall	.+1196   	; 0xc64 <gfx_mono_lcd_uc1608_mask_byte>
			gfx_mono_mask_byte(y1page, x, 0xFF, color);
     7b8:	1f 5f       	subi	r17, 0xFF	; 255
		uint8_t pixelmask = y1pixelmask & y2pixelmask;
		gfx_mono_mask_byte(y1page, x, pixelmask, color);
	} else {
		gfx_mono_mask_byte(y1page, x, y1pixelmask, color);

		while (++y1page < y2page) {
     7ba:	2d 2f       	mov	r18, r29
     7bc:	10 17       	cp	r17, r16
			gfx_mono_mask_byte(y1page, x, 0xFF, color);
     7be:	10 f4       	brcc	.+4      	; 0x7c4 <gfx_mono_generic_draw_vertical_line+0x8c>
     7c0:	4f ef       	ldi	r20, 0xFF	; 255
		}

		gfx_mono_mask_byte(y2page, x, y2pixelmask, color);
     7c2:	f7 cf       	rjmp	.-18     	; 0x7b2 <gfx_mono_generic_draw_vertical_line+0x7a>
     7c4:	4e 2d       	mov	r20, r14
     7c6:	6c 2f       	mov	r22, r28
	}
}
     7c8:	80 2f       	mov	r24, r16
     7ca:	df 91       	pop	r29
     7cc:	cf 91       	pop	r28
     7ce:	1f 91       	pop	r17
     7d0:	0f 91       	pop	r16

		while (++y1page < y2page) {
			gfx_mono_mask_byte(y1page, x, 0xFF, color);
		}

		gfx_mono_mask_byte(y2page, x, y2pixelmask, color);
     7d2:	ff 90       	pop	r15
     7d4:	ef 90       	pop	r14
	}
}
     7d6:	46 c2       	rjmp	.+1164   	; 0xc64 <gfx_mono_lcd_uc1608_mask_byte>
     7d8:	df 91       	pop	r29
     7da:	cf 91       	pop	r28
     7dc:	1f 91       	pop	r17
     7de:	0f 91       	pop	r16
     7e0:	ff 90       	pop	r15
     7e2:	ef 90       	pop	r14
     7e4:	08 95       	ret

000007e6 <gfx_mono_generic_draw_line>:
 * \param  color       Pixel operation of the line.
 */
void gfx_mono_generic_draw_line(gfx_coord_t x1, gfx_coord_t y1,
		gfx_coord_t x2, gfx_coord_t y2,
		enum gfx_mono_color color)
{
     7e6:	8f 92       	push	r8
     7e8:	9f 92       	push	r9
     7ea:	af 92       	push	r10
     7ec:	bf 92       	push	r11
     7ee:	cf 92       	push	r12
     7f0:	df 92       	push	r13
     7f2:	ef 92       	push	r14
     7f4:	ff 92       	push	r15
     7f6:	0f 93       	push	r16
     7f8:	1f 93       	push	r17
     7fa:	cf 93       	push	r28
     7fc:	df 93       	push	r29
     7fe:	18 2f       	mov	r17, r24
     800:	b6 2e       	mov	r11, r22
	int16_t dx;
	int16_t dy;
	int16_t e;

	/* swap x1,y1  with x2,y2 */
	if (x1 > x2) {
     802:	48 17       	cp	r20, r24
     804:	28 f4       	brcc	.+10     	; 0x810 <gfx_mono_generic_draw_line+0x2a>
		dx = x1;
		x1 = x2;
		x2 = dx;
		dy = y1;
		y1 = y2;
     806:	b2 2e       	mov	r11, r18
		y2 = dy;
     808:	26 2f       	mov	r18, r22
	int16_t dx;
	int16_t dy;
	int16_t e;

	/* swap x1,y1  with x2,y2 */
	if (x1 > x2) {
     80a:	81 2f       	mov	r24, r17
     80c:	14 2f       	mov	r17, r20
     80e:	48 2f       	mov	r20, r24
		dy = y1;
		y1 = y2;
		y2 = dy;
	}

	dx = x2 - x1;
     810:	c4 2f       	mov	r28, r20
     812:	d0 e0       	ldi	r29, 0x00	; 0
     814:	c1 1b       	sub	r28, r17
     816:	d1 09       	sbc	r29, r1
	dy = y2 - y1;
     818:	e2 2e       	mov	r14, r18
     81a:	f1 2c       	mov	r15, r1
     81c:	eb 18       	sub	r14, r11
     81e:	f1 08       	sbc	r15, r1

	x = x1;
	y = y1;

	if (dx < 0) {
     820:	d7 ff       	sbrs	r29, 7
     822:	06 c0       	rjmp	.+12     	; 0x830 <gfx_mono_generic_draw_line+0x4a>
		xinc = -1;
		dx = -dx;
     824:	d1 95       	neg	r29
     826:	c1 95       	neg	r28
     828:	d1 09       	sbc	r29, r1

	x = x1;
	y = y1;

	if (dx < 0) {
		xinc = -1;
     82a:	99 24       	eor	r9, r9
     82c:	9a 94       	dec	r9
     82e:	02 c0       	rjmp	.+4      	; 0x834 <gfx_mono_generic_draw_line+0x4e>
		dx = -dx;
	} else {
		xinc = 1;
     830:	99 24       	eor	r9, r9
     832:	93 94       	inc	r9
	}

	if (dy < 0) {
     834:	f7 fe       	sbrs	r15, 7
     836:	06 c0       	rjmp	.+12     	; 0x844 <gfx_mono_generic_draw_line+0x5e>
		yinc = -1;
		dy = -dy;
     838:	f1 94       	neg	r15
     83a:	e1 94       	neg	r14
     83c:	f1 08       	sbc	r15, r1
	} else {
		xinc = 1;
	}

	if (dy < 0) {
		yinc = -1;
     83e:	88 24       	eor	r8, r8
     840:	8a 94       	dec	r8
     842:	02 c0       	rjmp	.+4      	; 0x848 <gfx_mono_generic_draw_line+0x62>
		dy = -dy;
	} else {
		yinc = 1;
     844:	88 24       	eor	r8, r8
     846:	83 94       	inc	r8
	}

	if (dx > dy) {
     848:	ec 16       	cp	r14, r28
     84a:	fd 06       	cpc	r15, r29
     84c:	bc f4       	brge	.+46     	; 0x87c <gfx_mono_generic_draw_line+0x96>
		e = dy - dx;
     84e:	67 01       	movw	r12, r14
     850:	cc 1a       	sub	r12, r28
     852:	dd 0a       	sbc	r13, r29
		for (i = 0; i <= dx; i++) {
     854:	a1 2c       	mov	r10, r1
     856:	8a 2d       	mov	r24, r10
     858:	90 e0       	ldi	r25, 0x00	; 0
     85a:	c8 17       	cp	r28, r24
     85c:	d9 07       	cpc	r29, r25
     85e:	2c f1       	brlt	.+74     	; 0x8aa <gfx_mono_generic_draw_line+0xc4>
			gfx_mono_draw_pixel(x, y, color);
     860:	40 2f       	mov	r20, r16
     862:	6b 2d       	mov	r22, r11
     864:	81 2f       	mov	r24, r17
     866:	23 d2       	rcall	.+1094   	; 0xcae <gfx_mono_lcd_uc1608_draw_pixel>
			if (e >= 0) {
     868:	d7 fc       	sbrc	r13, 7
     86a:	03 c0       	rjmp	.+6      	; 0x872 <gfx_mono_generic_draw_line+0x8c>
				e -= dx;
     86c:	cc 1a       	sub	r12, r28
     86e:	dd 0a       	sbc	r13, r29
				y += yinc;
     870:	b8 0c       	add	r11, r8
			}

			e += dy;
     872:	ce 0c       	add	r12, r14
     874:	df 1c       	adc	r13, r15
     876:	19 0d       	add	r17, r9
		yinc = 1;
	}

	if (dx > dy) {
		e = dy - dx;
		for (i = 0; i <= dx; i++) {
     878:	a3 94       	inc	r10
     87a:	ed cf       	rjmp	.-38     	; 0x856 <gfx_mono_generic_draw_line+0x70>

			e += dy;
			x += xinc;
		}
	} else {
		e = dx - dy;
     87c:	6e 01       	movw	r12, r28
     87e:	ce 18       	sub	r12, r14
     880:	df 08       	sbc	r13, r15
		for (i = 0; i <= dy; i++) {
     882:	a1 2c       	mov	r10, r1
     884:	8a 2d       	mov	r24, r10
     886:	90 e0       	ldi	r25, 0x00	; 0
     888:	e8 16       	cp	r14, r24
     88a:	f9 06       	cpc	r15, r25
     88c:	74 f0       	brlt	.+28     	; 0x8aa <gfx_mono_generic_draw_line+0xc4>
			gfx_mono_draw_pixel(x, y, color);
     88e:	40 2f       	mov	r20, r16
     890:	6b 2d       	mov	r22, r11
     892:	81 2f       	mov	r24, r17
     894:	0c d2       	rcall	.+1048   	; 0xcae <gfx_mono_lcd_uc1608_draw_pixel>
			if (e >= 0) {
     896:	d7 fc       	sbrc	r13, 7
     898:	03 c0       	rjmp	.+6      	; 0x8a0 <gfx_mono_generic_draw_line+0xba>
				e -= dy;
     89a:	ce 18       	sub	r12, r14
     89c:	df 08       	sbc	r13, r15
				x += xinc;
     89e:	19 0d       	add	r17, r9
			}

			e += dx;
     8a0:	cc 0e       	add	r12, r28
     8a2:	dd 1e       	adc	r13, r29
     8a4:	b8 0c       	add	r11, r8
			e += dy;
			x += xinc;
		}
	} else {
		e = dx - dy;
		for (i = 0; i <= dy; i++) {
     8a6:	a3 94       	inc	r10
     8a8:	ed cf       	rjmp	.-38     	; 0x884 <gfx_mono_generic_draw_line+0x9e>

			e += dx;
			y += yinc;
		}
	}
}
     8aa:	df 91       	pop	r29
     8ac:	cf 91       	pop	r28
     8ae:	1f 91       	pop	r17
     8b0:	0f 91       	pop	r16
     8b2:	ff 90       	pop	r15
     8b4:	ef 90       	pop	r14
     8b6:	df 90       	pop	r13
     8b8:	cf 90       	pop	r12
     8ba:	bf 90       	pop	r11
     8bc:	af 90       	pop	r10
     8be:	9f 90       	pop	r9
     8c0:	8f 90       	pop	r8
     8c2:	08 95       	ret

000008c4 <gfx_mono_generic_draw_rect>:
 * \param  color       Pixel operation of the line.
 */
void gfx_mono_generic_draw_rect(gfx_coord_t x, gfx_coord_t y,
		gfx_coord_t width, gfx_coord_t height,
		enum gfx_mono_color color)
{
     8c4:	ff 92       	push	r15
     8c6:	0f 93       	push	r16
     8c8:	1f 93       	push	r17
     8ca:	cf 93       	push	r28
     8cc:	df 93       	push	r29
     8ce:	d8 2f       	mov	r29, r24
     8d0:	16 2f       	mov	r17, r22
     8d2:	c4 2f       	mov	r28, r20
     8d4:	f2 2e       	mov	r15, r18
	gfx_mono_draw_horizontal_line(x, y, width, color);
     8d6:	20 2f       	mov	r18, r16
     8d8:	d0 de       	rcall	.-608    	; 0x67a <gfx_mono_generic_draw_horizontal_line>
	gfx_mono_draw_horizontal_line(x, y + height - 1, width, color);
     8da:	6f ef       	ldi	r22, 0xFF	; 255
     8dc:	6f 0d       	add	r22, r15
     8de:	61 0f       	add	r22, r17
     8e0:	20 2f       	mov	r18, r16
     8e2:	4c 2f       	mov	r20, r28
     8e4:	8d 2f       	mov	r24, r29
     8e6:	c9 de       	rcall	.-622    	; 0x67a <gfx_mono_generic_draw_horizontal_line>

	gfx_mono_draw_vertical_line(x, y, height, color);
     8e8:	20 2f       	mov	r18, r16
     8ea:	4f 2d       	mov	r20, r15
     8ec:	61 2f       	mov	r22, r17
     8ee:	8d 2f       	mov	r24, r29
     8f0:	23 df       	rcall	.-442    	; 0x738 <gfx_mono_generic_draw_vertical_line>
	gfx_mono_draw_vertical_line(x + width - 1, y, height, color);
     8f2:	8f ef       	ldi	r24, 0xFF	; 255
     8f4:	8c 0f       	add	r24, r28
     8f6:	20 2f       	mov	r18, r16
     8f8:	4f 2d       	mov	r20, r15
     8fa:	61 2f       	mov	r22, r17
     8fc:	8d 0f       	add	r24, r29
}
     8fe:	df 91       	pop	r29
     900:	cf 91       	pop	r28
     902:	1f 91       	pop	r17
     904:	0f 91       	pop	r16
{
	gfx_mono_draw_horizontal_line(x, y, width, color);
	gfx_mono_draw_horizontal_line(x, y + height - 1, width, color);

	gfx_mono_draw_vertical_line(x, y, height, color);
	gfx_mono_draw_vertical_line(x + width - 1, y, height, color);
     906:	ff 90       	pop	r15
     908:	17 cf       	rjmp	.-466    	; 0x738 <gfx_mono_generic_draw_vertical_line>

0000090a <gfx_mono_generic_draw_filled_rect>:
 * \param  color       Pixel operation of the line
 */
void gfx_mono_generic_draw_filled_rect(gfx_coord_t x, gfx_coord_t y,
		gfx_coord_t width, gfx_coord_t height,
		enum gfx_mono_color color)
{
     90a:	ff 92       	push	r15
     90c:	0f 93       	push	r16
     90e:	1f 93       	push	r17
     910:	cf 93       	push	r28
     912:	df 93       	push	r29
	if (height == 0) {
     914:	22 23       	and	r18, r18
     916:	69 f0       	breq	.+26     	; 0x932 <gfx_mono_generic_draw_filled_rect+0x28>
     918:	14 2f       	mov	r17, r20
     91a:	f6 2e       	mov	r15, r22
     91c:	d8 2f       	mov	r29, r24
     91e:	cf ef       	ldi	r28, 0xFF	; 255
     920:	c2 0f       	add	r28, r18
		/* Nothing to do. Move along. */
		return;
	}

	while (height-- > 0) {
		gfx_mono_draw_horizontal_line(x, y + height, width, color);
     922:	6f 2d       	mov	r22, r15
     924:	6c 0f       	add	r22, r28
     926:	20 2f       	mov	r18, r16
     928:	41 2f       	mov	r20, r17
     92a:	8d 2f       	mov	r24, r29
     92c:	a6 de       	rcall	.-692    	; 0x67a <gfx_mono_generic_draw_horizontal_line>
     92e:	c1 50       	subi	r28, 0x01	; 1
     930:	c0 f7       	brcc	.-16     	; 0x922 <gfx_mono_generic_draw_filled_rect+0x18>
	}
}
     932:	df 91       	pop	r29
     934:	cf 91       	pop	r28
     936:	1f 91       	pop	r17
     938:	0f 91       	pop	r16
     93a:	ff 90       	pop	r15
     93c:	08 95       	ret

0000093e <gfx_mono_generic_draw_circle>:
 * \param  octant_mask Bitmask indicating which octants to draw.
 */
void gfx_mono_generic_draw_circle(gfx_coord_t x, gfx_coord_t y,
		gfx_coord_t radius, enum gfx_mono_color color,
		uint8_t octant_mask)
{
     93e:	5f 92       	push	r5
     940:	6f 92       	push	r6
     942:	7f 92       	push	r7
     944:	8f 92       	push	r8
     946:	9f 92       	push	r9
     948:	af 92       	push	r10
     94a:	bf 92       	push	r11
     94c:	cf 92       	push	r12
     94e:	df 92       	push	r13
     950:	ef 92       	push	r14
     952:	ff 92       	push	r15
     954:	0f 93       	push	r16
     956:	1f 93       	push	r17
     958:	cf 93       	push	r28
     95a:	df 93       	push	r29
     95c:	18 2f       	mov	r17, r24
     95e:	f6 2e       	mov	r15, r22
     960:	c4 2f       	mov	r28, r20
     962:	e2 2e       	mov	r14, r18
	gfx_coord_t offset_x;
	gfx_coord_t offset_y;
	int16_t error;

	/* Draw only a pixel if radius is zero. */
	if (radius == 0) {
     964:	41 11       	cpse	r20, r1
     966:	11 c0       	rjmp	.+34     	; 0x98a <gfx_mono_generic_draw_circle+0x4c>
		gfx_mono_draw_pixel(x, y, color);
     968:	42 2f       	mov	r20, r18
		}

		/* Next X. */
		++offset_x;
	}
}
     96a:	df 91       	pop	r29
     96c:	cf 91       	pop	r28
     96e:	1f 91       	pop	r17
     970:	0f 91       	pop	r16
     972:	ff 90       	pop	r15
     974:	ef 90       	pop	r14
     976:	df 90       	pop	r13
     978:	cf 90       	pop	r12
     97a:	bf 90       	pop	r11
     97c:	af 90       	pop	r10
     97e:	9f 90       	pop	r9
     980:	8f 90       	pop	r8
     982:	7f 90       	pop	r7
     984:	6f 90       	pop	r6
	gfx_coord_t offset_y;
	int16_t error;

	/* Draw only a pixel if radius is zero. */
	if (radius == 0) {
		gfx_mono_draw_pixel(x, y, color);
     986:	5f 90       	pop	r5
	}

	/* Set up start iterators. */
	offset_x = 0;
	offset_y = radius;
	error = 3 - 2 * radius;
     988:	92 c1       	rjmp	.+804    	; 0xcae <gfx_mono_lcd_uc1608_draw_pixel>
     98a:	83 e0       	ldi	r24, 0x03	; 3
     98c:	90 e0       	ldi	r25, 0x00	; 0
     98e:	6c 01       	movw	r12, r24
     990:	22 e0       	ldi	r18, 0x02	; 2
     992:	42 9f       	mul	r20, r18
     994:	c0 18       	sub	r12, r0
     996:	d1 08       	sbc	r13, r1
		gfx_mono_draw_pixel(x, y, color);
		return;
	}

	/* Set up start iterators. */
	offset_x = 0;
     998:	11 24       	eor	r1, r1
	error = 3 - 2 * radius;

	/* Iterate offsetX from 0 to radius. */
	while (offset_x <= offset_y) {
		/* Draw one pixel for each octant enabled in octant_mask. */
		if (octant_mask & GFX_OCTANT0) {
     99a:	d0 e0       	ldi	r29, 0x00	; 0
     99c:	80 2f       	mov	r24, r16
     99e:	81 70       	andi	r24, 0x01	; 1
			gfx_mono_draw_pixel(x + offset_y, y - offset_x, color);
		}

		if (octant_mask & GFX_OCTANT1) {
     9a0:	b8 2e       	mov	r11, r24
     9a2:	20 2f       	mov	r18, r16
     9a4:	22 70       	andi	r18, 0x02	; 2
			gfx_mono_draw_pixel(x + offset_x, y - offset_y, color);
		}

		if (octant_mask & GFX_OCTANT2) {
     9a6:	a2 2e       	mov	r10, r18
     9a8:	80 2f       	mov	r24, r16
     9aa:	84 70       	andi	r24, 0x04	; 4
			gfx_mono_draw_pixel(x - offset_x, y - offset_y, color);
		}

		if (octant_mask & GFX_OCTANT3) {
     9ac:	98 2e       	mov	r9, r24
     9ae:	20 2f       	mov	r18, r16
     9b0:	28 70       	andi	r18, 0x08	; 8
			gfx_mono_draw_pixel(x - offset_y, y - offset_x, color);
		}

		if (octant_mask & GFX_OCTANT4) {
     9b2:	82 2e       	mov	r8, r18
     9b4:	80 2f       	mov	r24, r16
     9b6:	80 71       	andi	r24, 0x10	; 16
			gfx_mono_draw_pixel(x - offset_y, y + offset_x, color);
		}

		if (octant_mask & GFX_OCTANT5) {
     9b8:	78 2e       	mov	r7, r24
     9ba:	20 2f       	mov	r18, r16
     9bc:	20 72       	andi	r18, 0x20	; 32
			gfx_mono_draw_pixel(x - offset_x, y + offset_y, color);
		}

		if (octant_mask & GFX_OCTANT6) {
     9be:	62 2e       	mov	r6, r18
     9c0:	80 2f       	mov	r24, r16
     9c2:	80 74       	andi	r24, 0x40	; 64
	error = 3 - 2 * radius;

	/* Iterate offsetX from 0 to radius. */
	while (offset_x <= offset_y) {
		/* Draw one pixel for each octant enabled in octant_mask. */
		if (octant_mask & GFX_OCTANT0) {
     9c4:	58 2e       	mov	r5, r24
     9c6:	bb 20       	and	r11, r11
			gfx_mono_draw_pixel(x + offset_y, y - offset_x, color);
     9c8:	31 f0       	breq	.+12     	; 0x9d6 <gfx_mono_generic_draw_circle+0x98>
     9ca:	4e 2d       	mov	r20, r14
     9cc:	6f 2d       	mov	r22, r15
     9ce:	6d 1b       	sub	r22, r29
     9d0:	81 2f       	mov	r24, r17
     9d2:	8c 0f       	add	r24, r28
		}

		if (octant_mask & GFX_OCTANT1) {
     9d4:	6c d1       	rcall	.+728    	; 0xcae <gfx_mono_lcd_uc1608_draw_pixel>
     9d6:	aa 20       	and	r10, r10
			gfx_mono_draw_pixel(x + offset_x, y - offset_y, color);
     9d8:	31 f0       	breq	.+12     	; 0x9e6 <gfx_mono_generic_draw_circle+0xa8>
     9da:	4e 2d       	mov	r20, r14
     9dc:	6f 2d       	mov	r22, r15
     9de:	6c 1b       	sub	r22, r28
     9e0:	81 2f       	mov	r24, r17
     9e2:	8d 0f       	add	r24, r29
		}

		if (octant_mask & GFX_OCTANT2) {
     9e4:	64 d1       	rcall	.+712    	; 0xcae <gfx_mono_lcd_uc1608_draw_pixel>
     9e6:	99 20       	and	r9, r9
			gfx_mono_draw_pixel(x - offset_x, y - offset_y, color);
     9e8:	31 f0       	breq	.+12     	; 0x9f6 <gfx_mono_generic_draw_circle+0xb8>
     9ea:	4e 2d       	mov	r20, r14
     9ec:	6f 2d       	mov	r22, r15
     9ee:	6c 1b       	sub	r22, r28
     9f0:	81 2f       	mov	r24, r17
     9f2:	8d 1b       	sub	r24, r29
		}

		if (octant_mask & GFX_OCTANT3) {
     9f4:	5c d1       	rcall	.+696    	; 0xcae <gfx_mono_lcd_uc1608_draw_pixel>
     9f6:	88 20       	and	r8, r8
			gfx_mono_draw_pixel(x - offset_y, y - offset_x, color);
     9f8:	31 f0       	breq	.+12     	; 0xa06 <gfx_mono_generic_draw_circle+0xc8>
     9fa:	4e 2d       	mov	r20, r14
     9fc:	6f 2d       	mov	r22, r15
     9fe:	6d 1b       	sub	r22, r29
     a00:	81 2f       	mov	r24, r17
     a02:	8c 1b       	sub	r24, r28
		}

		if (octant_mask & GFX_OCTANT4) {
     a04:	54 d1       	rcall	.+680    	; 0xcae <gfx_mono_lcd_uc1608_draw_pixel>
			gfx_mono_draw_pixel(x - offset_y, y + offset_x, color);
     a06:	77 20       	and	r7, r7
     a08:	31 f0       	breq	.+12     	; 0xa16 <gfx_mono_generic_draw_circle+0xd8>
     a0a:	4e 2d       	mov	r20, r14
     a0c:	6f 2d       	mov	r22, r15
     a0e:	6d 0f       	add	r22, r29
     a10:	81 2f       	mov	r24, r17
		}

		if (octant_mask & GFX_OCTANT5) {
     a12:	8c 1b       	sub	r24, r28
			gfx_mono_draw_pixel(x - offset_x, y + offset_y, color);
     a14:	4c d1       	rcall	.+664    	; 0xcae <gfx_mono_lcd_uc1608_draw_pixel>
     a16:	66 20       	and	r6, r6
     a18:	31 f0       	breq	.+12     	; 0xa26 <gfx_mono_generic_draw_circle+0xe8>
     a1a:	4e 2d       	mov	r20, r14
     a1c:	6f 2d       	mov	r22, r15
     a1e:	6c 0f       	add	r22, r28
		}

		if (octant_mask & GFX_OCTANT6) {
     a20:	81 2f       	mov	r24, r17
			gfx_mono_draw_pixel(x + offset_x, y + offset_y, color);
     a22:	8d 1b       	sub	r24, r29
     a24:	44 d1       	rcall	.+648    	; 0xcae <gfx_mono_lcd_uc1608_draw_pixel>
     a26:	55 20       	and	r5, r5
     a28:	31 f0       	breq	.+12     	; 0xa36 <gfx_mono_generic_draw_circle+0xf8>
     a2a:	4e 2d       	mov	r20, r14
     a2c:	6f 2d       	mov	r22, r15
		}

		if (octant_mask & GFX_OCTANT7) {
     a2e:	6c 0f       	add	r22, r28
     a30:	81 2f       	mov	r24, r17
			gfx_mono_draw_pixel(x + offset_y, y + offset_x, color);
     a32:	8d 0f       	add	r24, r29
     a34:	3c d1       	rcall	.+632    	; 0xcae <gfx_mono_lcd_uc1608_draw_pixel>
     a36:	07 ff       	sbrs	r16, 7
     a38:	06 c0       	rjmp	.+12     	; 0xa46 <gfx_mono_generic_draw_circle+0x108>
     a3a:	4e 2d       	mov	r20, r14
     a3c:	6f 2d       	mov	r22, r15
     a3e:	6d 0f       	add	r22, r29
     a40:	81 2f       	mov	r24, r17
     a42:	8c 0f       	add	r24, r28
		}

		/* Update error value and step offset_y when required. */
		if (error < 0) {
     a44:	34 d1       	rcall	.+616    	; 0xcae <gfx_mono_lcd_uc1608_draw_pixel>
     a46:	8d 2f       	mov	r24, r29
			error += ((offset_x << 2) + 6);
     a48:	90 e0       	ldi	r25, 0x00	; 0
     a4a:	d7 fe       	sbrs	r13, 7
     a4c:	08 c0       	rjmp	.+16     	; 0xa5e <gfx_mono_generic_draw_circle+0x120>
     a4e:	88 0f       	add	r24, r24
     a50:	99 1f       	adc	r25, r25
     a52:	88 0f       	add	r24, r24
     a54:	99 1f       	adc	r25, r25
     a56:	06 96       	adiw	r24, 0x06	; 6
		} else {
			error += (((offset_x - offset_y) << 2) + 10);
     a58:	c8 0e       	add	r12, r24
     a5a:	d9 1e       	adc	r13, r25
     a5c:	0a c0       	rjmp	.+20     	; 0xa72 <gfx_mono_generic_draw_circle+0x134>
     a5e:	8c 1b       	sub	r24, r28
     a60:	91 09       	sbc	r25, r1
     a62:	88 0f       	add	r24, r24
     a64:	99 1f       	adc	r25, r25
     a66:	88 0f       	add	r24, r24
     a68:	99 1f       	adc	r25, r25
			--offset_y;
     a6a:	0a 96       	adiw	r24, 0x0a	; 10
		}

		/* Next X. */
		++offset_x;
     a6c:	c8 0e       	add	r12, r24
	offset_x = 0;
	offset_y = radius;
	error = 3 - 2 * radius;

	/* Iterate offsetX from 0 to radius. */
	while (offset_x <= offset_y) {
     a6e:	d9 1e       	adc	r13, r25
     a70:	c1 50       	subi	r28, 0x01	; 1
     a72:	df 5f       	subi	r29, 0xFF	; 255
		}

		/* Next X. */
		++offset_x;
	}
}
     a74:	cd 17       	cp	r28, r29
     a76:	08 f0       	brcs	.+2      	; 0xa7a <gfx_mono_generic_draw_circle+0x13c>
     a78:	a6 cf       	rjmp	.-180    	; 0x9c6 <gfx_mono_generic_draw_circle+0x88>
     a7a:	df 91       	pop	r29
     a7c:	cf 91       	pop	r28
     a7e:	1f 91       	pop	r17
     a80:	0f 91       	pop	r16
     a82:	ff 90       	pop	r15
     a84:	ef 90       	pop	r14
     a86:	df 90       	pop	r13
     a88:	cf 90       	pop	r12
     a8a:	bf 90       	pop	r11
     a8c:	af 90       	pop	r10
     a8e:	9f 90       	pop	r9
     a90:	8f 90       	pop	r8
     a92:	7f 90       	pop	r7
     a94:	6f 90       	pop	r6
     a96:	5f 90       	pop	r5
     a98:	08 95       	ret

00000a9a <gfx_mono_generic_draw_filled_circle>:
 * \param  quadrant_mask Bitmask indicating which quadrants to draw.
 */
void gfx_mono_generic_draw_filled_circle(gfx_coord_t x, gfx_coord_t y,
		gfx_coord_t radius, enum gfx_mono_color color,
		uint8_t quadrant_mask)
{
     a9a:	8f 92       	push	r8
     a9c:	9f 92       	push	r9
     a9e:	af 92       	push	r10
     aa0:	bf 92       	push	r11
     aa2:	cf 92       	push	r12
     aa4:	df 92       	push	r13
     aa6:	ef 92       	push	r14
     aa8:	ff 92       	push	r15
     aaa:	0f 93       	push	r16
     aac:	1f 93       	push	r17
     aae:	cf 93       	push	r28
     ab0:	df 93       	push	r29
     ab2:	18 2f       	mov	r17, r24
     ab4:	d6 2e       	mov	r13, r22
     ab6:	c4 2f       	mov	r28, r20
     ab8:	c2 2e       	mov	r12, r18
	gfx_coord_t offset_x;
	gfx_coord_t offset_y;
	int16_t error;

	/* Draw only a pixel if radius is zero. */
	if (radius == 0) {
     aba:	41 11       	cpse	r20, r1
     abc:	0e c0       	rjmp	.+28     	; 0xada <gfx_mono_generic_draw_filled_circle+0x40>
		gfx_mono_draw_pixel(x, y, color);
     abe:	42 2f       	mov	r20, r18
		}

		/* Next X. */
		++offset_x;
	}
}
     ac0:	df 91       	pop	r29
     ac2:	cf 91       	pop	r28
     ac4:	1f 91       	pop	r17
     ac6:	0f 91       	pop	r16
     ac8:	ff 90       	pop	r15
     aca:	ef 90       	pop	r14
     acc:	df 90       	pop	r13
     ace:	cf 90       	pop	r12
     ad0:	bf 90       	pop	r11
     ad2:	af 90       	pop	r10
     ad4:	9f 90       	pop	r9
	gfx_coord_t offset_y;
	int16_t error;

	/* Draw only a pixel if radius is zero. */
	if (radius == 0) {
		gfx_mono_draw_pixel(x, y, color);
     ad6:	8f 90       	pop	r8
	}

	/* Set up start iterators. */
	offset_x = 0;
	offset_y = radius;
	error = 3 - 2 * radius;
     ad8:	ea c0       	rjmp	.+468    	; 0xcae <gfx_mono_lcd_uc1608_draw_pixel>
     ada:	83 e0       	ldi	r24, 0x03	; 3
     adc:	90 e0       	ldi	r25, 0x00	; 0
     ade:	7c 01       	movw	r14, r24
     ae0:	22 e0       	ldi	r18, 0x02	; 2
     ae2:	42 9f       	mul	r20, r18
     ae4:	e0 18       	sub	r14, r0
     ae6:	f1 08       	sbc	r15, r1
     ae8:	11 24       	eor	r1, r1
     aea:	bb 24       	eor	r11, r11
		gfx_mono_draw_pixel(x, y, color);
		return;
	}

	/* Set up start iterators. */
	offset_x = 0;
     aec:	b3 94       	inc	r11
	error = 3 - 2 * radius;

	/* Iterate offset_x from 0 to radius. */
	while (offset_x <= offset_y) {
		/* Draw vertical lines tracking each quadrant. */
		if (quadrant_mask & GFX_QUADRANT0) {
     aee:	d0 e0       	ldi	r29, 0x00	; 0
     af0:	80 2f       	mov	r24, r16
     af2:	83 70       	andi	r24, 0x03	; 3
					y - offset_x, offset_x + 1, color);
			gfx_mono_draw_vertical_line(x + offset_x,
					y - offset_y, offset_y + 1, color);
		}

		if (quadrant_mask & GFX_QUADRANT1) {
     af4:	a8 2e       	mov	r10, r24
     af6:	20 2f       	mov	r18, r16
     af8:	2c 70       	andi	r18, 0x0C	; 12
					y - offset_x, offset_x + 1, color);
			gfx_mono_draw_vertical_line(x - offset_x,
					y - offset_y, offset_y + 1, color);
		}

		if (quadrant_mask & GFX_QUADRANT2) {
     afa:	92 2e       	mov	r9, r18
     afc:	80 2f       	mov	r24, r16
     afe:	80 73       	andi	r24, 0x30	; 48
					y, offset_x + 1, color);
			gfx_mono_draw_vertical_line(x - offset_x,
					y, offset_y + 1, color);
		}

		if (quadrant_mask & GFX_QUADRANT3) {
     b00:	88 2e       	mov	r8, r24
	error = 3 - 2 * radius;

	/* Iterate offset_x from 0 to radius. */
	while (offset_x <= offset_y) {
		/* Draw vertical lines tracking each quadrant. */
		if (quadrant_mask & GFX_QUADRANT0) {
     b02:	00 7c       	andi	r16, 0xC0	; 192
     b04:	aa 20       	and	r10, r10
			gfx_mono_draw_vertical_line(x + offset_y,
     b06:	79 f0       	breq	.+30     	; 0xb26 <gfx_mono_generic_draw_filled_circle+0x8c>
     b08:	2c 2d       	mov	r18, r12
     b0a:	4b 2d       	mov	r20, r11
     b0c:	6d 2d       	mov	r22, r13
     b0e:	6d 1b       	sub	r22, r29
     b10:	81 2f       	mov	r24, r17
     b12:	8c 0f       	add	r24, r28
					y - offset_x, offset_x + 1, color);
			gfx_mono_draw_vertical_line(x + offset_x,
     b14:	11 de       	rcall	.-990    	; 0x738 <gfx_mono_generic_draw_vertical_line>
     b16:	2c 2d       	mov	r18, r12
     b18:	41 e0       	ldi	r20, 0x01	; 1
     b1a:	4c 0f       	add	r20, r28
     b1c:	6d 2d       	mov	r22, r13
     b1e:	6c 1b       	sub	r22, r28
     b20:	81 2f       	mov	r24, r17
     b22:	8d 0f       	add	r24, r29
					y - offset_y, offset_y + 1, color);
		}

		if (quadrant_mask & GFX_QUADRANT1) {
     b24:	09 de       	rcall	.-1006   	; 0x738 <gfx_mono_generic_draw_vertical_line>
     b26:	99 20       	and	r9, r9
			gfx_mono_draw_vertical_line(x - offset_y,
     b28:	79 f0       	breq	.+30     	; 0xb48 <gfx_mono_generic_draw_filled_circle+0xae>
     b2a:	2c 2d       	mov	r18, r12
     b2c:	4b 2d       	mov	r20, r11
     b2e:	6d 2d       	mov	r22, r13
     b30:	6d 1b       	sub	r22, r29
     b32:	81 2f       	mov	r24, r17
     b34:	8c 1b       	sub	r24, r28
					y - offset_x, offset_x + 1, color);
			gfx_mono_draw_vertical_line(x - offset_x,
     b36:	00 de       	rcall	.-1024   	; 0x738 <gfx_mono_generic_draw_vertical_line>
     b38:	2c 2d       	mov	r18, r12
     b3a:	41 e0       	ldi	r20, 0x01	; 1
     b3c:	4c 0f       	add	r20, r28
     b3e:	6d 2d       	mov	r22, r13
     b40:	6c 1b       	sub	r22, r28
     b42:	81 2f       	mov	r24, r17
     b44:	8d 1b       	sub	r24, r29
					y - offset_y, offset_y + 1, color);
		}

		if (quadrant_mask & GFX_QUADRANT2) {
     b46:	f8 dd       	rcall	.-1040   	; 0x738 <gfx_mono_generic_draw_vertical_line>
			gfx_mono_draw_vertical_line(x - offset_y,
     b48:	88 20       	and	r8, r8
     b4a:	69 f0       	breq	.+26     	; 0xb66 <gfx_mono_generic_draw_filled_circle+0xcc>
     b4c:	2c 2d       	mov	r18, r12
     b4e:	4b 2d       	mov	r20, r11
     b50:	6d 2d       	mov	r22, r13
					y, offset_x + 1, color);
			gfx_mono_draw_vertical_line(x - offset_x,
     b52:	81 2f       	mov	r24, r17
     b54:	8c 1b       	sub	r24, r28
     b56:	f0 dd       	rcall	.-1056   	; 0x738 <gfx_mono_generic_draw_vertical_line>
     b58:	2c 2d       	mov	r18, r12
     b5a:	41 e0       	ldi	r20, 0x01	; 1
     b5c:	4c 0f       	add	r20, r28
					y, offset_y + 1, color);
		}

		if (quadrant_mask & GFX_QUADRANT3) {
     b5e:	6d 2d       	mov	r22, r13
			gfx_mono_draw_vertical_line(x + offset_y,
     b60:	81 2f       	mov	r24, r17
     b62:	8d 1b       	sub	r24, r29
     b64:	e9 dd       	rcall	.-1070   	; 0x738 <gfx_mono_generic_draw_vertical_line>
     b66:	00 23       	and	r16, r16
     b68:	69 f0       	breq	.+26     	; 0xb84 <gfx_mono_generic_draw_filled_circle+0xea>
     b6a:	2c 2d       	mov	r18, r12
					y, offset_x + 1, color);
			gfx_mono_draw_vertical_line(x + offset_x,
     b6c:	4b 2d       	mov	r20, r11
     b6e:	6d 2d       	mov	r22, r13
     b70:	81 2f       	mov	r24, r17
     b72:	8c 0f       	add	r24, r28
     b74:	e1 dd       	rcall	.-1086   	; 0x738 <gfx_mono_generic_draw_vertical_line>
     b76:	2c 2d       	mov	r18, r12
     b78:	41 e0       	ldi	r20, 0x01	; 1
     b7a:	4c 0f       	add	r20, r28
     b7c:	6d 2d       	mov	r22, r13
     b7e:	81 2f       	mov	r24, r17
					y, offset_y + 1, color);
		}

		/* Update error value and step offset_y when required. */
		if (error < 0) {
     b80:	8d 0f       	add	r24, r29
     b82:	da dd       	rcall	.-1100   	; 0x738 <gfx_mono_generic_draw_vertical_line>
			error += ((offset_x << 2) + 6);
     b84:	8d 2f       	mov	r24, r29
     b86:	90 e0       	ldi	r25, 0x00	; 0
     b88:	f7 fe       	sbrs	r15, 7
     b8a:	08 c0       	rjmp	.+16     	; 0xb9c <gfx_mono_generic_draw_filled_circle+0x102>
     b8c:	88 0f       	add	r24, r24
     b8e:	99 1f       	adc	r25, r25
     b90:	88 0f       	add	r24, r24
     b92:	99 1f       	adc	r25, r25
		} else {
			error += (((offset_x - offset_y) << 2) + 10);
     b94:	06 96       	adiw	r24, 0x06	; 6
     b96:	e8 0e       	add	r14, r24
     b98:	f9 1e       	adc	r15, r25
     b9a:	0a c0       	rjmp	.+20     	; 0xbb0 <gfx_mono_generic_draw_filled_circle+0x116>
     b9c:	8c 1b       	sub	r24, r28
     b9e:	91 09       	sbc	r25, r1
     ba0:	88 0f       	add	r24, r24
     ba2:	99 1f       	adc	r25, r25
     ba4:	88 0f       	add	r24, r24
			--offset_y;
     ba6:	99 1f       	adc	r25, r25
		}

		/* Next X. */
		++offset_x;
     ba8:	0a 96       	adiw	r24, 0x0a	; 10
     baa:	e8 0e       	add	r14, r24
	offset_x = 0;
	offset_y = radius;
	error = 3 - 2 * radius;

	/* Iterate offset_x from 0 to radius. */
	while (offset_x <= offset_y) {
     bac:	f9 1e       	adc	r15, r25
     bae:	c1 50       	subi	r28, 0x01	; 1
     bb0:	df 5f       	subi	r29, 0xFF	; 255
		}

		/* Next X. */
		++offset_x;
	}
}
     bb2:	b3 94       	inc	r11
     bb4:	cd 17       	cp	r28, r29
     bb6:	08 f0       	brcs	.+2      	; 0xbba <gfx_mono_generic_draw_filled_circle+0x120>
     bb8:	a5 cf       	rjmp	.-182    	; 0xb04 <gfx_mono_generic_draw_filled_circle+0x6a>
     bba:	df 91       	pop	r29
     bbc:	cf 91       	pop	r28
     bbe:	1f 91       	pop	r17
     bc0:	0f 91       	pop	r16
     bc2:	ff 90       	pop	r15
     bc4:	ef 90       	pop	r14
     bc6:	df 90       	pop	r13
     bc8:	cf 90       	pop	r12
     bca:	bf 90       	pop	r11
     bcc:	af 90       	pop	r10
     bce:	9f 90       	pop	r9
     bd0:	8f 90       	pop	r8
     bd2:	08 95       	ret

00000bd4 <gfx_mono_lcd_uc1608_put_page>:
		uint8_t				byte = gfx_mono_lcd_uc1608_get_byte(page, x);

		isSet = (byte & pixel_mask) ?  GFX_PIXEL_SET : GFX_PIXEL_CLR;
	}
	return isSet;
}
     bd4:	0f 93       	push	r16
     bd6:	1f 93       	push	r17
     bd8:	cf 93       	push	r28
     bda:	df 93       	push	r29
     bdc:	8c 01       	movw	r16, r24
     bde:	86 2f       	mov	r24, r22
     be0:	d4 2f       	mov	r29, r20
     be2:	c2 2f       	mov	r28, r18
     be4:	01 15       	cp	r16, r1
     be6:	11 05       	cpc	r17, r1
     be8:	c1 f0       	breq	.+48     	; 0xc1a <gfx_mono_lcd_uc1608_put_page+0x46>
     bea:	60 31       	cpi	r22, 0x10	; 16
     bec:	b0 f4       	brcc	.+44     	; 0xc1a <gfx_mono_lcd_uc1608_put_page+0x46>
     bee:	40 3f       	cpi	r20, 0xF0	; 240
     bf0:	a0 f4       	brcc	.+40     	; 0xc1a <gfx_mono_lcd_uc1608_put_page+0x46>
     bf2:	ae d6       	rcall	.+3420   	; 0x1950 <lcd_page_set>
     bf4:	8d 2f       	mov	r24, r29
     bf6:	b4 d6       	rcall	.+3432   	; 0x1960 <lcd_col_set>
     bf8:	8c 2f       	mov	r24, r28
     bfa:	90 e0       	ldi	r25, 0x00	; 0
     bfc:	8d 0f       	add	r24, r29
     bfe:	91 1d       	adc	r25, r1
     c00:	81 3f       	cpi	r24, 0xF1	; 241
     c02:	91 05       	cpc	r25, r1
     c04:	14 f0       	brlt	.+4      	; 0xc0a <gfx_mono_lcd_uc1608_put_page+0x36>
     c06:	c0 ef       	ldi	r28, 0xF0	; 240
     c08:	cd 1b       	sub	r28, r29
     c0a:	cc 23       	and	r28, r28
     c0c:	31 f0       	breq	.+12     	; 0xc1a <gfx_mono_lcd_uc1608_put_page+0x46>
     c0e:	f8 01       	movw	r30, r16
     c10:	81 91       	ld	r24, Z+
     c12:	8f 01       	movw	r16, r30
     c14:	52 d6       	rcall	.+3236   	; 0x18ba <lcd_bus_write_ram>
     c16:	c1 50       	subi	r28, 0x01	; 1
     c18:	f8 cf       	rjmp	.-16     	; 0xc0a <gfx_mono_lcd_uc1608_put_page+0x36>
     c1a:	df 91       	pop	r29
     c1c:	cf 91       	pop	r28
     c1e:	1f 91       	pop	r17
     c20:	0f 91       	pop	r16
     c22:	08 95       	ret

00000c24 <gfx_mono_lcd_uc1608_put_byte>:
     c24:	cf 93       	push	r28
     c26:	df 93       	push	r29
     c28:	80 31       	cpi	r24, 0x10	; 16
     c2a:	58 f4       	brcc	.+22     	; 0xc42 <gfx_mono_lcd_uc1608_put_byte+0x1e>
     c2c:	60 3f       	cpi	r22, 0xF0	; 240
     c2e:	48 f4       	brcc	.+18     	; 0xc42 <gfx_mono_lcd_uc1608_put_byte+0x1e>
     c30:	d4 2f       	mov	r29, r20
     c32:	c6 2f       	mov	r28, r22
     c34:	8d d6       	rcall	.+3354   	; 0x1950 <lcd_page_set>
     c36:	8c 2f       	mov	r24, r28
     c38:	93 d6       	rcall	.+3366   	; 0x1960 <lcd_col_set>
     c3a:	8d 2f       	mov	r24, r29
     c3c:	df 91       	pop	r29
     c3e:	cf 91       	pop	r28
     c40:	3c c6       	rjmp	.+3192   	; 0x18ba <lcd_bus_write_ram>
     c42:	df 91       	pop	r29
     c44:	cf 91       	pop	r28
     c46:	08 95       	ret

00000c48 <gfx_mono_lcd_uc1608_get_byte>:
     c48:	cf 93       	push	r28
     c4a:	80 31       	cpi	r24, 0x10	; 16
     c4c:	40 f4       	brcc	.+16     	; 0xc5e <gfx_mono_lcd_uc1608_get_byte+0x16>
     c4e:	60 3f       	cpi	r22, 0xF0	; 240
     c50:	30 f4       	brcc	.+12     	; 0xc5e <gfx_mono_lcd_uc1608_get_byte+0x16>
     c52:	c6 2f       	mov	r28, r22
     c54:	7d d6       	rcall	.+3322   	; 0x1950 <lcd_page_set>
     c56:	8c 2f       	mov	r24, r28
     c58:	83 d6       	rcall	.+3334   	; 0x1960 <lcd_col_set>
     c5a:	cf 91       	pop	r28
     c5c:	3b c6       	rjmp	.+3190   	; 0x18d4 <lcd_bus_read_ram>
     c5e:	80 e0       	ldi	r24, 0x00	; 0
     c60:	cf 91       	pop	r28
     c62:	08 95       	ret

00000c64 <gfx_mono_lcd_uc1608_mask_byte>:
 * \param column     Page offset (x coordinate)
 * \param pixel_mask Mask for pixel operation
 * \param color      Pixel operation
 */
void gfx_mono_lcd_uc1608_mask_byte(gfx_coord_t page, gfx_coord_t column, gfx_mono_color_t pixel_mask, gfx_mono_color_t color)
{
     c64:	0f 93       	push	r16
     c66:	1f 93       	push	r17
     c68:	cf 93       	push	r28
     c6a:	df 93       	push	r29
	uint8_t data = 0;

	if ((page < GFX_MONO_LCD_PAGES) && (column < GFX_MONO_LCD_WIDTH)) {
     c6c:	80 31       	cpi	r24, 0x10	; 16
     c6e:	d0 f4       	brcc	.+52     	; 0xca4 <gfx_mono_lcd_uc1608_mask_byte+0x40>
     c70:	60 3f       	cpi	r22, 0xF0	; 240
     c72:	c0 f4       	brcc	.+48     	; 0xca4 <gfx_mono_lcd_uc1608_mask_byte+0x40>
     c74:	02 2f       	mov	r16, r18
     c76:	d4 2f       	mov	r29, r20
		data = gfx_mono_lcd_uc1608_get_byte(page, column);
     c78:	16 2f       	mov	r17, r22
     c7a:	e6 df       	rcall	.-52     	; 0xc48 <gfx_mono_lcd_uc1608_get_byte>

		switch (color) {
     c7c:	c8 2f       	mov	r28, r24
     c7e:	01 30       	cpi	r16, 0x01	; 1
     c80:	41 f0       	breq	.+16     	; 0xc92 <gfx_mono_lcd_uc1608_mask_byte+0x2e>
     c82:	20 f0       	brcs	.+8      	; 0xc8c <gfx_mono_lcd_uc1608_mask_byte+0x28>
     c84:	02 30       	cpi	r16, 0x02	; 2
			case GFX_PIXEL_SET:
				data |= pixel_mask;
				break;

			case GFX_PIXEL_XOR:
				data ^= pixel_mask;
     c86:	31 f4       	brne	.+12     	; 0xc94 <gfx_mono_lcd_uc1608_mask_byte+0x30>
     c88:	cd 27       	eor	r28, r29
	if ((page < GFX_MONO_LCD_PAGES) && (column < GFX_MONO_LCD_WIDTH)) {
		data = gfx_mono_lcd_uc1608_get_byte(page, column);

		switch (color) {
			case GFX_PIXEL_CLR:
				data &= ~pixel_mask;
     c8a:	04 c0       	rjmp	.+8      	; 0xc94 <gfx_mono_lcd_uc1608_mask_byte+0x30>
     c8c:	d0 95       	com	r29
     c8e:	cd 23       	and	r28, r29
			case GFX_PIXEL_XOR:
				data ^= pixel_mask;
				break;
		}

		lcd_col_set(column);
     c90:	01 c0       	rjmp	.+2      	; 0xc94 <gfx_mono_lcd_uc1608_mask_byte+0x30>
     c92:	cd 2b       	or	r28, r29
		lcd_bus_write_ram(data);										// Write byte slice to RAM
     c94:	81 2f       	mov	r24, r17
	}
}
     c96:	64 d6       	rcall	.+3272   	; 0x1960 <lcd_col_set>
     c98:	8c 2f       	mov	r24, r28
     c9a:	df 91       	pop	r29
				data ^= pixel_mask;
				break;
		}

		lcd_col_set(column);
		lcd_bus_write_ram(data);										// Write byte slice to RAM
     c9c:	cf 91       	pop	r28
     c9e:	1f 91       	pop	r17
	}
}
     ca0:	0f 91       	pop	r16
     ca2:	0b c6       	rjmp	.+3094   	; 0x18ba <lcd_bus_write_ram>
     ca4:	df 91       	pop	r29
     ca6:	cf 91       	pop	r28
     ca8:	1f 91       	pop	r17
     caa:	0f 91       	pop	r16
     cac:	08 95       	ret

00000cae <gfx_mono_lcd_uc1608_draw_pixel>:
 * \param x         X coordinate of the pixel
 * \param y         Y coordinate of the pixel
 * \param color     Pixel operation.
 */
void gfx_mono_lcd_uc1608_draw_pixel(gfx_coord_t x, gfx_coord_t y, gfx_mono_color_t color)
{
     cae:	96 2f       	mov	r25, r22
     cb0:	24 2f       	mov	r18, r20
	if ((x < GFX_MONO_LCD_WIDTH) && (y < GFX_MONO_LCD_HEIGHT)) {
     cb2:	80 3f       	cpi	r24, 0xF0	; 240
     cb4:	88 f4       	brcc	.+34     	; 0xcd8 <gfx_mono_lcd_uc1608_draw_pixel+0x2a>
     cb6:	67 fd       	sbrc	r22, 7
     cb8:	0f c0       	rjmp	.+30     	; 0xcd8 <gfx_mono_lcd_uc1608_draw_pixel+0x2a>
		gfx_coord_t			page		= y / GFX_MONO_LCD_PIXELS_PER_BYTE;
		gfx_mono_color_t	pixel_mask	= 1 << (y % GFX_MONO_LCD_PIXELS_PER_BYTE);

		gfx_mono_lcd_uc1608_mask_byte(page, x, pixel_mask, color);
     cba:	36 2f       	mov	r19, r22
     cbc:	37 70       	andi	r19, 0x07	; 7
     cbe:	61 e0       	ldi	r22, 0x01	; 1
     cc0:	70 e0       	ldi	r23, 0x00	; 0
     cc2:	ab 01       	movw	r20, r22
     cc4:	01 c0       	rjmp	.+2      	; 0xcc8 <gfx_mono_lcd_uc1608_draw_pixel+0x1a>
     cc6:	44 0f       	add	r20, r20
     cc8:	3a 95       	dec	r19
     cca:	ea f7       	brpl	.-6      	; 0xcc6 <gfx_mono_lcd_uc1608_draw_pixel+0x18>
     ccc:	68 2f       	mov	r22, r24
     cce:	89 2f       	mov	r24, r25
     cd0:	86 95       	lsr	r24
     cd2:	86 95       	lsr	r24
     cd4:	86 95       	lsr	r24
     cd6:	c6 cf       	rjmp	.-116    	; 0xc64 <gfx_mono_lcd_uc1608_mask_byte>
     cd8:	08 95       	ret

00000cda <gfx_mono_draw_char>:
 * \param y        Y coordinate on screen.
 * \param font     Font to draw character in
 */
void gfx_mono_draw_char(const char c, const gfx_coord_t x, const gfx_coord_t y,
		const struct font *font)
{
     cda:	9f 92       	push	r9
     cdc:	af 92       	push	r10
     cde:	bf 92       	push	r11
     ce0:	cf 92       	push	r12
     ce2:	df 92       	push	r13
     ce4:	ef 92       	push	r14
     ce6:	ff 92       	push	r15
     ce8:	0f 93       	push	r16
     cea:	1f 93       	push	r17
     cec:	cf 93       	push	r28
     cee:	df 93       	push	r29
     cf0:	d8 2f       	mov	r29, r24
     cf2:	c6 2e       	mov	r12, r22
     cf4:	d4 2e       	mov	r13, r20
     cf6:	79 01       	movw	r14, r18
	gfx_mono_draw_filled_rect(x, y, font->width, font->height,
     cf8:	00 e0       	ldi	r16, 0x00	; 0
     cfa:	f9 01       	movw	r30, r18
     cfc:	24 81       	ldd	r18, Z+4	; 0x04
     cfe:	43 81       	ldd	r20, Z+3	; 0x03
     d00:	6d 2d       	mov	r22, r13
     d02:	8c 2d       	mov	r24, r12
     d04:	02 de       	rcall	.-1020   	; 0x90a <gfx_mono_generic_draw_filled_rect>
			GFX_PIXEL_CLR);

	switch (font->type) {
     d06:	f7 01       	movw	r30, r14
     d08:	80 81       	ld	r24, Z
     d0a:	81 11       	cpse	r24, r1
     d0c:	39 c0       	rjmp	.+114    	; 0xd80 <gfx_mono_draw_char+0xa6>
	Assert(font != NULL);

	gfx_coord_t inc_x = x;
	gfx_coord_t inc_y = y;

	char_row_size = font->width / CONFIG_FONT_PIXELS_PER_BYTE;
     d0e:	83 81       	ldd	r24, Z+3	; 0x03
     d10:	28 2f       	mov	r18, r24
     d12:	26 95       	lsr	r18
     d14:	26 95       	lsr	r18
     d16:	26 95       	lsr	r18
	if (font->width % CONFIG_FONT_PIXELS_PER_BYTE) {
     d18:	87 70       	andi	r24, 0x07	; 7
     d1a:	09 f0       	breq	.+2      	; 0xd1e <gfx_mono_draw_char+0x44>
		char_row_size++;
     d1c:	2f 5f       	subi	r18, 0xFF	; 255
	}

	glyph_data_offset = char_row_size * font->height *
     d1e:	f7 01       	movw	r30, r14
     d20:	c4 81       	ldd	r28, Z+4	; 0x04
			((uint8_t)ch - font->first_char);
	glyph_data = font->data.progmem + glyph_data_offset;
     d22:	8d 2f       	mov	r24, r29
     d24:	90 e0       	ldi	r25, 0x00	; 0
     d26:	35 81       	ldd	r19, Z+5	; 0x05
     d28:	83 1b       	sub	r24, r19
     d2a:	91 09       	sbc	r25, r1
     d2c:	2c 9f       	mul	r18, r28
     d2e:	90 01       	movw	r18, r0
     d30:	11 24       	eor	r1, r1
     d32:	82 9f       	mul	r24, r18
     d34:	a0 01       	movw	r20, r0
     d36:	83 9f       	mul	r24, r19
     d38:	50 0d       	add	r21, r0
     d3a:	92 9f       	mul	r25, r18
     d3c:	50 0d       	add	r21, r0
     d3e:	11 24       	eor	r1, r1
     d40:	01 81       	ldd	r16, Z+1	; 0x01
     d42:	12 81       	ldd	r17, Z+2	; 0x02
     d44:	04 0f       	add	r16, r20
     d46:	15 1f       	adc	r17, r21
     d48:	dc 0e       	add	r13, r28
     d4a:	9d 2c       	mov	r9, r13
     d4c:	9c 1a       	sub	r9, r28
	rows_left = font->height;

	do {
		uint8_t glyph_byte = 0;
		uint8_t pixelsToDraw = font->width;
     d4e:	f7 01       	movw	r30, r14
     d50:	a3 80       	ldd	r10, Z+3	; 0x03
			((uint8_t)ch - font->first_char);
	glyph_data = font->data.progmem + glyph_data_offset;
	rows_left = font->height;

	do {
		uint8_t glyph_byte = 0;
     d52:	b1 2c       	mov	r11, r1
		uint8_t pixelsToDraw = font->width;

		for (i = 0; i < pixelsToDraw; i++) {
     d54:	d0 e0       	ldi	r29, 0x00	; 0
     d56:	8c 2d       	mov	r24, r12
     d58:	8d 0f       	add	r24, r29
     d5a:	ad 16       	cp	r10, r29
     d5c:	79 f0       	breq	.+30     	; 0xd7c <gfx_mono_draw_char+0xa2>
			if (i % CONFIG_FONT_PIXELS_PER_BYTE == 0) {
     d5e:	9d 2f       	mov	r25, r29
     d60:	97 70       	andi	r25, 0x07	; 7
     d62:	21 f4       	brne	.+8      	; 0xd6c <gfx_mono_draw_char+0x92>
				glyph_byte = PROGMEM_READ_BYTE(glyph_data);
     d64:	f8 01       	movw	r30, r16
     d66:	b4 90       	lpm	r11, Z
				glyph_data++;
     d68:	0f 5f       	subi	r16, 0xFF	; 255
     d6a:	1f 4f       	sbci	r17, 0xFF	; 255
			}

			if ((glyph_byte & 0x80)) {
     d6c:	b7 fe       	sbrs	r11, 7
     d6e:	03 c0       	rjmp	.+6      	; 0xd76 <gfx_mono_draw_char+0x9c>
				gfx_mono_draw_pixel(inc_x, inc_y,
     d70:	41 e0       	ldi	r20, 0x01	; 1
     d72:	69 2d       	mov	r22, r9
     d74:	9c df       	rcall	.-200    	; 0xcae <gfx_mono_lcd_uc1608_draw_pixel>
						GFX_PIXEL_SET);
			}

			inc_x += 1;
			glyph_byte <<= 1;
     d76:	bb 0c       	add	r11, r11

	do {
		uint8_t glyph_byte = 0;
		uint8_t pixelsToDraw = font->width;

		for (i = 0; i < pixelsToDraw; i++) {
     d78:	df 5f       	subi	r29, 0xFF	; 255
     d7a:	ed cf       	rjmp	.-38     	; 0xd56 <gfx_mono_draw_char+0x7c>
			glyph_byte <<= 1;
		}

		inc_y += 1;
		inc_x = x;
		rows_left--;
     d7c:	c1 50       	subi	r28, 0x01	; 1
	} while (rows_left > 0);
     d7e:	29 f7       	brne	.-54     	; 0xd4a <gfx_mono_draw_char+0x70>
	default:
		/* Unsupported mode, call assert */
		Assert(false);
		break;
	}
}
     d80:	df 91       	pop	r29
     d82:	cf 91       	pop	r28
     d84:	1f 91       	pop	r17
     d86:	0f 91       	pop	r16
     d88:	ff 90       	pop	r15
     d8a:	ef 90       	pop	r14
     d8c:	df 90       	pop	r13
     d8e:	cf 90       	pop	r12
     d90:	bf 90       	pop	r11
     d92:	af 90       	pop	r10
     d94:	9f 90       	pop	r9
     d96:	08 95       	ret

00000d98 <gfx_mono_draw_string>:
 * \param y         Y coordinate on screen.
 * \param font      Font to draw string in
 */
void gfx_mono_draw_string(const char *str, gfx_coord_t x, gfx_coord_t y,
		const struct font *font)
{
     d98:	df 92       	push	r13
     d9a:	ef 92       	push	r14
     d9c:	ff 92       	push	r15
     d9e:	0f 93       	push	r16
     da0:	1f 93       	push	r17
     da2:	cf 93       	push	r28
     da4:	df 93       	push	r29
     da6:	d6 2e       	mov	r13, r22
     da8:	d4 2f       	mov	r29, r20
     daa:	79 01       	movw	r14, r18
     dac:	8c 01       	movw	r16, r24
     dae:	c6 2f       	mov	r28, r22
	Assert(font != NULL);

	/* Draw characters until trailing null byte */
	do {
		/* Handle '\n' as newline, draw normal characters. */
		if (*str == '\n') {
     db0:	f8 01       	movw	r30, r16
     db2:	81 91       	ld	r24, Z+
     db4:	8f 01       	movw	r16, r30
     db6:	8a 30       	cpi	r24, 0x0A	; 10
     db8:	31 f4       	brne	.+12     	; 0xdc6 <gfx_mono_draw_string+0x2e>
			x = start_of_string_position_x;
			y += font->height + 1;
     dba:	f7 01       	movw	r30, r14
     dbc:	84 81       	ldd	r24, Z+4	; 0x04
     dbe:	8f 5f       	subi	r24, 0xFF	; 255
     dc0:	d8 0f       	add	r29, r24

	/* Draw characters until trailing null byte */
	do {
		/* Handle '\n' as newline, draw normal characters. */
		if (*str == '\n') {
			x = start_of_string_position_x;
     dc2:	cd 2d       	mov	r28, r13
     dc4:	09 c0       	rjmp	.+18     	; 0xdd8 <gfx_mono_draw_string+0x40>
			y += font->height + 1;
		} else if (*str == '\r') {
     dc6:	8d 30       	cpi	r24, 0x0D	; 13
     dc8:	39 f0       	breq	.+14     	; 0xdd8 <gfx_mono_draw_string+0x40>
			/* Skip '\r' characters. */
		} else {
			gfx_mono_draw_char(*str, x, y, font);
     dca:	97 01       	movw	r18, r14
     dcc:	4d 2f       	mov	r20, r29
     dce:	6c 2f       	mov	r22, r28
     dd0:	84 df       	rcall	.-248    	; 0xcda <gfx_mono_draw_char>
			x += font->width;
     dd2:	f7 01       	movw	r30, r14
     dd4:	83 81       	ldd	r24, Z+3	; 0x03
     dd6:	c8 0f       	add	r28, r24
		}
	} while (*(++str));
     dd8:	f8 01       	movw	r30, r16
     dda:	80 81       	ld	r24, Z
     ddc:	81 11       	cpse	r24, r1
     dde:	e8 cf       	rjmp	.-48     	; 0xdb0 <gfx_mono_draw_string+0x18>
}
     de0:	df 91       	pop	r29
     de2:	cf 91       	pop	r28
     de4:	1f 91       	pop	r17
     de6:	0f 91       	pop	r16
     de8:	ff 90       	pop	r15
     dea:	ef 90       	pop	r14
     dec:	df 90       	pop	r13
     dee:	08 95       	ret

00000df0 <asm_break>:

/* Helper functions */

void asm_break(void)
{
	__asm__ __volatile__ ("break" ::: "memory");
     df0:	98 95       	break
	nop();
     df2:	00 00       	nop
     df4:	08 95       	ret

00000df6 <__vector_9>:
{	/* TIMER 2 COMP-B */
	s_bad_interrupt();
}

ISR(__vector_9, ISR_BLOCK)
{	/* TIMER 2 OVF - Overflow */
     df6:	1f 92       	push	r1
     df8:	0f 92       	push	r0
     dfa:	0f b6       	in	r0, 0x3f	; 63
     dfc:	0f 92       	push	r0
     dfe:	11 24       	eor	r1, r1
     e00:	2f 93       	push	r18
     e02:	3f 93       	push	r19
     e04:	4f 93       	push	r20
     e06:	5f 93       	push	r21
     e08:	6f 93       	push	r22
     e0a:	7f 93       	push	r23
     e0c:	8f 93       	push	r24
     e0e:	9f 93       	push	r25
     e10:	af 93       	push	r26
     e12:	bf 93       	push	r27
     e14:	ef 93       	push	r30
     e16:	ff 93       	push	r31
	if (g_status.isAnimationStopped) {
     e18:	80 91 5e 04 	lds	r24, 0x045E	; 0x80045e <g_status>
     e1c:	81 ff       	sbrs	r24, 1
     e1e:	6f c0       	rjmp	.+222    	; 0xefe <__vector_9+0x108>
		static uint8_t state_old = 0;
		static uint8_t state_ctr = 0;
		static uint8_t second_old = 0;
		static uint8_t button_ctr = 0;
		uint8_t cur = PORTB & 0x3f;
     e20:	85 b1       	in	r24, 0x05	; 5
     e22:	8f 73       	andi	r24, 0x3F	; 63

		/* signaling the grade of deviation */
		g_audio_out_loudness = 0;
		if (g_showData.clkState_clk_state < 0xf) {
     e24:	90 91 49 04 	lds	r25, 0x0449	; 0x800449 <g_showData+0x20>
     e28:	9f 30       	cpi	r25, 0x0F	; 15
     e2a:	60 f4       	brcc	.+24     	; 0xe44 <__vector_9+0x4e>
			cur |= _BV(PORTB6);  // LED = red
     e2c:	80 64       	ori	r24, 0x40	; 64
			if (state_old != 0x02) {
     e2e:	90 91 4b 03 	lds	r25, 0x034B	; 0x80034b <state_old.2971>
     e32:	92 30       	cpi	r25, 0x02	; 2
     e34:	19 f0       	breq	.+6      	; 0xe3c <__vector_9+0x46>
				state_ctr = 122;  // 1 sec
     e36:	9a e7       	ldi	r25, 0x7A	; 122
     e38:	90 93 4a 03 	sts	0x034A, r25	; 0x80034a <state_ctr.2972>
			}
			state_old = 0x02;
     e3c:	92 e0       	ldi	r25, 0x02	; 2
     e3e:	90 93 4b 03 	sts	0x034B, r25	; 0x80034b <state_old.2971>
     e42:	24 c0       	rjmp	.+72     	; 0xe8c <__vector_9+0x96>

		} else if ((g_showData.clkState_clk_state == 0xf) && (-4 < g_showData.ppb_int) && (g_showData.ppb_int < 4)) {
     e44:	9f 30       	cpi	r25, 0x0F	; 15
     e46:	c1 f4       	brne	.+48     	; 0xe78 <__vector_9+0x82>
     e48:	20 91 3b 04 	lds	r18, 0x043B	; 0x80043b <g_showData+0x12>
     e4c:	30 91 3c 04 	lds	r19, 0x043C	; 0x80043c <g_showData+0x13>
     e50:	2d 5f       	subi	r18, 0xFD	; 253
     e52:	3f 4f       	sbci	r19, 0xFF	; 255
     e54:	27 30       	cpi	r18, 0x07	; 7
     e56:	31 05       	cpc	r19, r1
     e58:	78 f4       	brcc	.+30     	; 0xe78 <__vector_9+0x82>
			cur |= _BV(PORTB7);  // LED = green
     e5a:	80 68       	ori	r24, 0x80	; 128
			state_old = 0x00;
     e5c:	10 92 4b 03 	sts	0x034B, r1	; 0x80034b <state_old.2971>

			/* Acoustic phase tracker */
			if (g_showData.time_second != second_old) {
     e60:	90 91 4e 04 	lds	r25, 0x044E	; 0x80044e <g_showData+0x25>
     e64:	20 91 49 03 	lds	r18, 0x0349	; 0x800349 <second_old.2973>
     e68:	92 17       	cp	r25, r18
     e6a:	81 f0       	breq	.+32     	; 0xe8c <__vector_9+0x96>
				second_old = g_showData.time_second;
     e6c:	90 93 49 03 	sts	0x0349, r25	; 0x800349 <second_old.2973>
				state_ctr = 6;
     e70:	96 e0       	ldi	r25, 0x06	; 6
     e72:	90 93 4a 03 	sts	0x034A, r25	; 0x80034a <state_ctr.2972>
     e76:	0a c0       	rjmp	.+20     	; 0xe8c <__vector_9+0x96>
			}

		} else {
			if (!state_old) {
     e78:	90 91 4b 03 	lds	r25, 0x034B	; 0x80034b <state_old.2971>
     e7c:	91 11       	cpse	r25, r1
     e7e:	03 c0       	rjmp	.+6      	; 0xe86 <__vector_9+0x90>
				state_ctr = 30;  // 1/4 sec
     e80:	9e e1       	ldi	r25, 0x1E	; 30
     e82:	90 93 4a 03 	sts	0x034A, r25	; 0x80034a <state_ctr.2972>
			}
			state_old = 0x01;
     e86:	91 e0       	ldi	r25, 0x01	; 1
     e88:	90 93 4b 03 	sts	0x034B, r25	; 0x80034b <state_old.2971>
		}

		if (state_ctr) {
     e8c:	90 91 4a 03 	lds	r25, 0x034A	; 0x80034a <state_ctr.2972>
     e90:	99 23       	and	r25, r25
     e92:	39 f0       	breq	.+14     	; 0xea2 <__vector_9+0xac>
			--state_ctr;
     e94:	91 50       	subi	r25, 0x01	; 1
     e96:	90 93 4a 03 	sts	0x034A, r25	; 0x80034a <state_ctr.2972>
			g_audio_out_loudness = 9;  // max 9
     e9a:	99 e0       	ldi	r25, 0x09	; 9
     e9c:	90 93 62 04 	sts	0x0462, r25	; 0x800462 <g_audio_out_loudness>
     ea0:	02 c0       	rjmp	.+4      	; 0xea6 <__vector_9+0xb0>
		} else {
			g_audio_out_loudness = 0;
     ea2:	10 92 62 04 	sts	0x0462, r1	; 0x800462 <g_audio_out_loudness>
		}

		PORTB = cur;
     ea6:	85 b9       	out	0x05, r24	; 5

		/* sampling I/Q and push buttons */
		if (button_ctr) {
     ea8:	80 91 48 03 	lds	r24, 0x0348	; 0x800348 <__data_end>
     eac:	88 23       	and	r24, r24
     eae:	21 f0       	breq	.+8      	; 0xeb8 <__vector_9+0xc2>
			--button_ctr;
     eb0:	81 50       	subi	r24, 0x01	; 1
     eb2:	80 93 48 03 	sts	0x0348, r24	; 0x800348 <__data_end>
     eb6:	23 c0       	rjmp	.+70     	; 0xefe <__vector_9+0x108>
		} else {
			button_ctr = 12;
     eb8:	8c e0       	ldi	r24, 0x0C	; 12
     eba:	80 93 48 03 	sts	0x0348, r24	; 0x800348 <__data_end>
			uint8_t sw = (PINC & 0x06) >> 1;
     ebe:	86 b1       	in	r24, 0x06	; 6
     ec0:	86 70       	andi	r24, 0x06	; 6
     ec2:	90 e0       	ldi	r25, 0x00	; 0
     ec4:	95 95       	asr	r25
     ec6:	87 95       	ror	r24
			if (!(sw & 0x01)) {									// SW-I: decrement contrast voltage
     ec8:	80 fd       	sbrc	r24, 0
     eca:	09 c0       	rjmp	.+18     	; 0xede <__vector_9+0xe8>
				if (g_lcd_contrast_pm) {
     ecc:	80 91 63 04 	lds	r24, 0x0463	; 0x800463 <g_lcd_contrast_pm>
     ed0:	88 23       	and	r24, r24
     ed2:	a9 f0       	breq	.+42     	; 0xefe <__vector_9+0x108>
					--g_lcd_contrast_pm;
     ed4:	81 50       	subi	r24, 0x01	; 1
     ed6:	80 93 63 04 	sts	0x0463, r24	; 0x800463 <g_lcd_contrast_pm>
					lcd_contrast_update();
     eda:	11 d5       	rcall	.+2594   	; 0x18fe <lcd_contrast_update>
				}
			} else if (!(sw & 0x02)) {							// SW-Q: increment contrast voltage
     edc:	10 c0       	rjmp	.+32     	; 0xefe <__vector_9+0x108>
     ede:	81 fd       	sbrc	r24, 1
				if (g_lcd_contrast_pm < 0x3F) {
     ee0:	09 c0       	rjmp	.+18     	; 0xef4 <__vector_9+0xfe>
     ee2:	80 91 63 04 	lds	r24, 0x0463	; 0x800463 <g_lcd_contrast_pm>
     ee6:	8f 33       	cpi	r24, 0x3F	; 63
					++g_lcd_contrast_pm;
     ee8:	50 f4       	brcc	.+20     	; 0xefe <__vector_9+0x108>
     eea:	8f 5f       	subi	r24, 0xFF	; 255
					lcd_contrast_update();
     eec:	80 93 63 04 	sts	0x0463, r24	; 0x800463 <g_lcd_contrast_pm>
     ef0:	06 d5       	rcall	.+2572   	; 0x18fe <lcd_contrast_update>
				}
			} else if (!(PINB & _BV(PINB2))) {					// Pushbutton: store value in EEPROM
     ef2:	05 c0       	rjmp	.+10     	; 0xefe <__vector_9+0x108>
     ef4:	1a 99       	sbic	0x03, 2	; 3
				eeprom_nvm_settings_write(C_EEPROM_NVM_SETTING_LCD_CONTRAST);
     ef6:	03 c0       	rjmp	.+6      	; 0xefe <__vector_9+0x108>
     ef8:	81 e0       	ldi	r24, 0x01	; 1
     efa:	0e 94 55 1b 	call	0x36aa	; 0x36aa <eeprom_nvm_settings_write>
			}
		}
	}
}
     efe:	ff 91       	pop	r31
     f00:	ef 91       	pop	r30
     f02:	bf 91       	pop	r27
     f04:	af 91       	pop	r26
     f06:	9f 91       	pop	r25
     f08:	8f 91       	pop	r24
     f0a:	7f 91       	pop	r23
     f0c:	6f 91       	pop	r22
     f0e:	5f 91       	pop	r21
     f10:	4f 91       	pop	r20
     f12:	3f 91       	pop	r19
     f14:	2f 91       	pop	r18
     f16:	0f 90       	pop	r0
     f18:	0f be       	out	0x3f, r0	; 63
     f1a:	0f 90       	pop	r0
     f1c:	1f 90       	pop	r1
     f1e:	18 95       	reti

00000f20 <__vector_13>:
{	/* TIMER 1 COMP-B */
	s_bad_interrupt();
}

ISR(__vector_13, ISR_BLOCK)
{	/* TIMER 1 OVF - Overflow */
     f20:	1f 92       	push	r1
     f22:	0f 92       	push	r0
     f24:	0f b6       	in	r0, 0x3f	; 63
     f26:	0f 92       	push	r0
     f28:	11 24       	eor	r1, r1
     f2a:	2f 93       	push	r18
     f2c:	3f 93       	push	r19
     f2e:	4f 93       	push	r20
     f30:	5f 93       	push	r21
     f32:	6f 93       	push	r22
     f34:	7f 93       	push	r23
     f36:	8f 93       	push	r24
     f38:	9f 93       	push	r25
     f3a:	af 93       	push	r26
     f3c:	bf 93       	push	r27
	++g_timer_abs_msb;
     f3e:	80 91 72 04 	lds	r24, 0x0472	; 0x800472 <g_timer_abs_msb>
     f42:	90 91 73 04 	lds	r25, 0x0473	; 0x800473 <g_timer_abs_msb+0x1>
     f46:	a0 91 74 04 	lds	r26, 0x0474	; 0x800474 <g_timer_abs_msb+0x2>
     f4a:	b0 91 75 04 	lds	r27, 0x0475	; 0x800475 <g_timer_abs_msb+0x3>
     f4e:	01 96       	adiw	r24, 0x01	; 1
     f50:	a1 1d       	adc	r26, r1
     f52:	b1 1d       	adc	r27, r1
     f54:	80 93 72 04 	sts	0x0472, r24	; 0x800472 <g_timer_abs_msb>
     f58:	90 93 73 04 	sts	0x0473, r25	; 0x800473 <g_timer_abs_msb+0x1>
     f5c:	a0 93 74 04 	sts	0x0474, r26	; 0x800474 <g_timer_abs_msb+0x2>
     f60:	b0 93 75 04 	sts	0x0475, r27	; 0x800475 <g_timer_abs_msb+0x3>

	if (g_status.isAnimationStopped && g_audio_out_loudness) {
     f64:	80 91 5e 04 	lds	r24, 0x045E	; 0x80045e <g_status>
     f68:	81 ff       	sbrs	r24, 1
     f6a:	56 c0       	rjmp	.+172    	; 0x1018 <__vector_13+0xf8>
     f6c:	40 91 62 04 	lds	r20, 0x0462	; 0x800462 <g_audio_out_loudness>
     f70:	44 23       	and	r20, r20
     f72:	09 f4       	brne	.+2      	; 0xf76 <__vector_13+0x56>
     f74:	51 c0       	rjmp	.+162    	; 0x1018 <__vector_13+0xf8>
		int16_t l_audio_pwm_inc = 3691 + (g_showData.clkState_phaseDeg100 >> 2);  // (880 Hz / 15625 Hz) * 16384 Steps * 8
     f76:	80 91 37 04 	lds	r24, 0x0437	; 0x800437 <g_showData+0xe>
     f7a:	90 91 38 04 	lds	r25, 0x0438	; 0x800438 <g_showData+0xf>
     f7e:	95 95       	asr	r25
     f80:	87 95       	ror	r24
     f82:	95 95       	asr	r25
     f84:	87 95       	ror	r24
     f86:	9c 01       	movw	r18, r24
     f88:	25 59       	subi	r18, 0x95	; 149
     f8a:	31 4f       	sbci	r19, 0xF1	; 241

		/* Generate triangle signal */
		if (g_audio_pwm_ramp_dwn) {
     f8c:	50 91 5f 04 	lds	r21, 0x045F	; 0x80045f <g_audio_pwm_ramp_dwn>
     f90:	80 91 60 04 	lds	r24, 0x0460	; 0x800460 <g_audio_pwm_accu>
     f94:	90 91 61 04 	lds	r25, 0x0461	; 0x800461 <g_audio_pwm_accu+0x1>
     f98:	55 23       	and	r21, r21
     f9a:	b1 f0       	breq	.+44     	; 0xfc8 <__vector_13+0xa8>
			g_audio_pwm_accu -= l_audio_pwm_inc;
     f9c:	82 1b       	sub	r24, r18
     f9e:	93 0b       	sbc	r25, r19
     fa0:	90 93 61 04 	sts	0x0461, r25	; 0x800461 <g_audio_pwm_accu+0x1>
     fa4:	80 93 60 04 	sts	0x0460, r24	; 0x800460 <g_audio_pwm_accu>
			if (g_audio_pwm_accu <= -16383) {
     fa8:	82 30       	cpi	r24, 0x02	; 2
     faa:	20 ec       	ldi	r18, 0xC0	; 192
     fac:	92 07       	cpc	r25, r18
     fae:	14 f5       	brge	.+68     	; 0xff4 <__vector_13+0xd4>
				g_audio_pwm_ramp_dwn = false;
     fb0:	10 92 5f 04 	sts	0x045F, r1	; 0x80045f <g_audio_pwm_ramp_dwn>
				int16_t residue = -g_audio_pwm_accu - 16383;
				g_audio_pwm_accu = -16383 + residue;
     fb4:	22 e0       	ldi	r18, 0x02	; 2
     fb6:	30 e8       	ldi	r19, 0x80	; 128
     fb8:	b9 01       	movw	r22, r18
     fba:	68 1b       	sub	r22, r24
     fbc:	79 0b       	sbc	r23, r25
     fbe:	70 93 61 04 	sts	0x0461, r23	; 0x800461 <g_audio_pwm_accu+0x1>
     fc2:	60 93 60 04 	sts	0x0460, r22	; 0x800460 <g_audio_pwm_accu>
     fc6:	16 c0       	rjmp	.+44     	; 0xff4 <__vector_13+0xd4>
			}
		} else {
			g_audio_pwm_accu += l_audio_pwm_inc;
     fc8:	82 0f       	add	r24, r18
     fca:	93 1f       	adc	r25, r19
     fcc:	90 93 61 04 	sts	0x0461, r25	; 0x800461 <g_audio_pwm_accu+0x1>
     fd0:	80 93 60 04 	sts	0x0460, r24	; 0x800460 <g_audio_pwm_accu>
			if (g_audio_pwm_accu >= +16383) {
     fd4:	8f 3f       	cpi	r24, 0xFF	; 255
     fd6:	7f e3       	ldi	r23, 0x3F	; 63
     fd8:	97 07       	cpc	r25, r23
     fda:	64 f0       	brlt	.+24     	; 0xff4 <__vector_13+0xd4>
				g_audio_pwm_ramp_dwn = true;
     fdc:	21 e0       	ldi	r18, 0x01	; 1
     fde:	20 93 5f 04 	sts	0x045F, r18	; 0x80045f <g_audio_pwm_ramp_dwn>
				int16_t residue = g_audio_pwm_accu - 16383;
				g_audio_pwm_accu = 16383 - residue;
     fe2:	2e ef       	ldi	r18, 0xFE	; 254
     fe4:	3f e7       	ldi	r19, 0x7F	; 127
     fe6:	b9 01       	movw	r22, r18
     fe8:	68 1b       	sub	r22, r24
     fea:	79 0b       	sbc	r23, r25
     fec:	70 93 61 04 	sts	0x0461, r23	; 0x800461 <g_audio_pwm_accu+0x1>
     ff0:	60 93 60 04 	sts	0x0460, r22	; 0x800460 <g_audio_pwm_accu>
			}
		}

		int16_t audio_out = 256 + (g_audio_pwm_accu >> (15 - g_audio_out_loudness));  // 6 + 9
     ff4:	2f e0       	ldi	r18, 0x0F	; 15
     ff6:	30 e0       	ldi	r19, 0x00	; 0
     ff8:	24 1b       	sub	r18, r20
     ffa:	31 09       	sbc	r19, r1
     ffc:	80 91 60 04 	lds	r24, 0x0460	; 0x800460 <g_audio_pwm_accu>
    1000:	90 91 61 04 	lds	r25, 0x0461	; 0x800461 <g_audio_pwm_accu+0x1>
    1004:	02 c0       	rjmp	.+4      	; 0x100a <__vector_13+0xea>
    1006:	95 95       	asr	r25
    1008:	87 95       	ror	r24
    100a:	2a 95       	dec	r18
    100c:	e2 f7       	brpl	.-8      	; 0x1006 <__vector_13+0xe6>
    100e:	93 95       	inc	r25
		OCR1AH = (uint8_t) (audio_out >> 8);					// 9 bit
    1010:	90 93 89 00 	sts	0x0089, r25	; 0x800089 <__TEXT_REGION_LENGTH__+0x7e0089>
		OCR1AL = (uint8_t) (audio_out & 0xff);
    1014:	80 93 88 00 	sts	0x0088, r24	; 0x800088 <__TEXT_REGION_LENGTH__+0x7e0088>
	}
}
    1018:	bf 91       	pop	r27
    101a:	af 91       	pop	r26
    101c:	9f 91       	pop	r25
    101e:	8f 91       	pop	r24
    1020:	7f 91       	pop	r23
    1022:	6f 91       	pop	r22
    1024:	5f 91       	pop	r21
    1026:	4f 91       	pop	r20
    1028:	3f 91       	pop	r19
    102a:	2f 91       	pop	r18
    102c:	0f 90       	pop	r0
    102e:	0f be       	out	0x3f, r0	; 63
    1030:	0f 90       	pop	r0
    1032:	1f 90       	pop	r1
    1034:	18 95       	reti

00001036 <__vector_21__bottom>:
	__vector_21__bottom(reason, adc_val, adc_light_last, adc_temp_last);
}

/* do not static this function to avoid code inlining that would inherit many push operations in the critical section */
void __vector_21__bottom(uint8_t reason, uint16_t adc_val, uint16_t adc_light_last, uint16_t adc_temp_last)
{
    1036:	8f 92       	push	r8
    1038:	9f 92       	push	r9
    103a:	af 92       	push	r10
    103c:	bf 92       	push	r11
    103e:	cf 92       	push	r12
    1040:	df 92       	push	r13
    1042:	ef 92       	push	r14
    1044:	ff 92       	push	r15
    1046:	cf 93       	push	r28
    1048:	df 93       	push	r29
    104a:	eb 01       	movw	r28, r22
	/* Low pass filtering and enhancing the data depth */
	if (reason == ADC_STATE_VLD_LDR) {
    104c:	81 30       	cpi	r24, 0x01	; 1
    104e:	e9 f5       	brne	.+122    	; 0x10ca <__vector_21__bottom+0x94>
		float calc = g_adc_light ?  0.998f * g_adc_light + 0.002f * adc_val : adc_val;			// load with initial value if none is set before
    1050:	c0 90 6d 04 	lds	r12, 0x046D	; 0x80046d <g_adc_light>
    1054:	d0 90 6e 04 	lds	r13, 0x046E	; 0x80046e <g_adc_light+0x1>
    1058:	e0 90 6f 04 	lds	r14, 0x046F	; 0x80046f <g_adc_light+0x2>
    105c:	f0 90 70 04 	lds	r15, 0x0470	; 0x800470 <g_adc_light+0x3>
    1060:	20 e0       	ldi	r18, 0x00	; 0
    1062:	30 e0       	ldi	r19, 0x00	; 0
    1064:	a9 01       	movw	r20, r18
    1066:	c7 01       	movw	r24, r14
    1068:	b6 01       	movw	r22, r12
    106a:	0e 94 ea 1d 	call	0x3bd4	; 0x3bd4 <__cmpsf2>
    106e:	ae 01       	movw	r20, r28
    1070:	60 e0       	ldi	r22, 0x00	; 0
    1072:	70 e0       	ldi	r23, 0x00	; 0
    1074:	88 23       	and	r24, r24
    1076:	d9 f0       	breq	.+54     	; 0x10ae <__vector_21__bottom+0x78>
    1078:	cb 01       	movw	r24, r22
    107a:	ba 01       	movw	r22, r20
    107c:	0e 94 87 1e 	call	0x3d0e	; 0x3d0e <__floatunsisf>
    1080:	2f e6       	ldi	r18, 0x6F	; 111
    1082:	32 e1       	ldi	r19, 0x12	; 18
    1084:	43 e0       	ldi	r20, 0x03	; 3
    1086:	5b e3       	ldi	r21, 0x3B	; 59
    1088:	0e 94 90 1f 	call	0x3f20	; 0x3f20 <__mulsf3>
    108c:	4b 01       	movw	r8, r22
    108e:	5c 01       	movw	r10, r24
    1090:	2e ee       	ldi	r18, 0xEE	; 238
    1092:	3c e7       	ldi	r19, 0x7C	; 124
    1094:	4f e7       	ldi	r20, 0x7F	; 127
    1096:	5f e3       	ldi	r21, 0x3F	; 63
    1098:	c7 01       	movw	r24, r14
    109a:	b6 01       	movw	r22, r12
    109c:	0e 94 90 1f 	call	0x3f20	; 0x3f20 <__mulsf3>
    10a0:	9b 01       	movw	r18, r22
    10a2:	ac 01       	movw	r20, r24
    10a4:	c5 01       	movw	r24, r10
    10a6:	b4 01       	movw	r22, r8
    10a8:	0e 94 86 1d 	call	0x3b0c	; 0x3b0c <__addsf3>
    10ac:	04 c0       	rjmp	.+8      	; 0x10b6 <__vector_21__bottom+0x80>
    10ae:	cb 01       	movw	r24, r22
    10b0:	ba 01       	movw	r22, r20
    10b2:	0e 94 87 1e 	call	0x3d0e	; 0x3d0e <__floatunsisf>

		cpu_irq_disable();
    10b6:	f8 94       	cli
		g_adc_light = calc;
    10b8:	60 93 6d 04 	sts	0x046D, r22	; 0x80046d <g_adc_light>
    10bc:	70 93 6e 04 	sts	0x046E, r23	; 0x80046e <g_adc_light+0x1>
    10c0:	80 93 6f 04 	sts	0x046F, r24	; 0x80046f <g_adc_light+0x2>
    10c4:	90 93 70 04 	sts	0x0470, r25	; 0x800470 <g_adc_light+0x3>
    10c8:	3e c0       	rjmp	.+124    	; 0x1146 <__vector_21__bottom+0x110>

	} else if (reason == ADC_STATE_VLD_TEMP) {
    10ca:	83 30       	cpi	r24, 0x03	; 3
    10cc:	e1 f5       	brne	.+120    	; 0x1146 <__vector_21__bottom+0x110>
		float calc = g_adc_temp ?  0.9995f * g_adc_temp + 0.0005f * adc_val : adc_val;		// load with initial value if none is set before
    10ce:	c0 90 69 04 	lds	r12, 0x0469	; 0x800469 <g_adc_temp>
    10d2:	d0 90 6a 04 	lds	r13, 0x046A	; 0x80046a <g_adc_temp+0x1>
    10d6:	e0 90 6b 04 	lds	r14, 0x046B	; 0x80046b <g_adc_temp+0x2>
    10da:	f0 90 6c 04 	lds	r15, 0x046C	; 0x80046c <g_adc_temp+0x3>
    10de:	20 e0       	ldi	r18, 0x00	; 0
    10e0:	30 e0       	ldi	r19, 0x00	; 0
    10e2:	a9 01       	movw	r20, r18
    10e4:	c7 01       	movw	r24, r14
    10e6:	b6 01       	movw	r22, r12
    10e8:	0e 94 ea 1d 	call	0x3bd4	; 0x3bd4 <__cmpsf2>
    10ec:	ae 01       	movw	r20, r28
    10ee:	60 e0       	ldi	r22, 0x00	; 0
    10f0:	70 e0       	ldi	r23, 0x00	; 0
    10f2:	88 23       	and	r24, r24
    10f4:	d9 f0       	breq	.+54     	; 0x112c <__vector_21__bottom+0xf6>
    10f6:	cb 01       	movw	r24, r22
    10f8:	ba 01       	movw	r22, r20
    10fa:	0e 94 87 1e 	call	0x3d0e	; 0x3d0e <__floatunsisf>
    10fe:	2f e6       	ldi	r18, 0x6F	; 111
    1100:	32 e1       	ldi	r19, 0x12	; 18
    1102:	43 e0       	ldi	r20, 0x03	; 3
    1104:	5a e3       	ldi	r21, 0x3A	; 58
    1106:	0e 94 90 1f 	call	0x3f20	; 0x3f20 <__mulsf3>
    110a:	4b 01       	movw	r8, r22
    110c:	5c 01       	movw	r10, r24
    110e:	2b e3       	ldi	r18, 0x3B	; 59
    1110:	3f ed       	ldi	r19, 0xDF	; 223
    1112:	4f e7       	ldi	r20, 0x7F	; 127
    1114:	5f e3       	ldi	r21, 0x3F	; 63
    1116:	c7 01       	movw	r24, r14
    1118:	b6 01       	movw	r22, r12
    111a:	0e 94 90 1f 	call	0x3f20	; 0x3f20 <__mulsf3>
    111e:	9b 01       	movw	r18, r22
    1120:	ac 01       	movw	r20, r24
    1122:	c5 01       	movw	r24, r10
    1124:	b4 01       	movw	r22, r8
    1126:	0e 94 86 1d 	call	0x3b0c	; 0x3b0c <__addsf3>
    112a:	04 c0       	rjmp	.+8      	; 0x1134 <__vector_21__bottom+0xfe>
    112c:	cb 01       	movw	r24, r22
    112e:	ba 01       	movw	r22, r20
    1130:	0e 94 87 1e 	call	0x3d0e	; 0x3d0e <__floatunsisf>

		cpu_irq_disable();
    1134:	f8 94       	cli
		g_adc_temp = calc;
    1136:	60 93 69 04 	sts	0x0469, r22	; 0x800469 <g_adc_temp>
    113a:	70 93 6a 04 	sts	0x046A, r23	; 0x80046a <g_adc_temp+0x1>
    113e:	80 93 6b 04 	sts	0x046B, r24	; 0x80046b <g_adc_temp+0x2>
    1142:	90 93 6c 04 	sts	0x046C, r25	; 0x80046c <g_adc_temp+0x3>
	}
}
    1146:	df 91       	pop	r29
    1148:	cf 91       	pop	r28
    114a:	ff 90       	pop	r15
    114c:	ef 90       	pop	r14
    114e:	df 90       	pop	r13
    1150:	cf 90       	pop	r12
    1152:	bf 90       	pop	r11
    1154:	af 90       	pop	r10
    1156:	9f 90       	pop	r9
    1158:	8f 90       	pop	r8
    115a:	08 95       	ret

0000115c <__vector_21>:
{	/* USART, TX - Complete */
	s_bad_interrupt();
}

ISR(__vector_21, ISR_BLOCK)
{	/* ADC */
    115c:	1f 92       	push	r1
    115e:	0f 92       	push	r0
    1160:	0f b6       	in	r0, 0x3f	; 63
    1162:	0f 92       	push	r0
    1164:	11 24       	eor	r1, r1
    1166:	cf 92       	push	r12
    1168:	df 92       	push	r13
    116a:	ef 92       	push	r14
    116c:	ff 92       	push	r15
    116e:	1f 93       	push	r17
    1170:	2f 93       	push	r18
    1172:	3f 93       	push	r19
    1174:	4f 93       	push	r20
    1176:	5f 93       	push	r21
    1178:	6f 93       	push	r22
    117a:	7f 93       	push	r23
    117c:	8f 93       	push	r24
    117e:	9f 93       	push	r25
    1180:	af 93       	push	r26
    1182:	bf 93       	push	r27
    1184:	cf 93       	push	r28
    1186:	df 93       	push	r29
    1188:	ef 93       	push	r30
    118a:	ff 93       	push	r31
	uint16_t adc_val;
	uint8_t  reason = g_adc_state;
    118c:	10 91 71 04 	lds	r17, 0x0471	; 0x800471 <g_adc_state>

	/* CLI part */
	adc_val  = ADCL;
    1190:	c0 91 78 00 	lds	r28, 0x0078	; 0x800078 <__TEXT_REGION_LENGTH__+0x7e0078>
	adc_val |= ADCH << 8;
    1194:	80 91 79 00 	lds	r24, 0x0079	; 0x800079 <__TEXT_REGION_LENGTH__+0x7e0079>
    1198:	d0 e0       	ldi	r29, 0x00	; 0
    119a:	d8 2b       	or	r29, r24

	//TIFR1 |= _BV(TOV1);							// Reset Timer1 overflow status bit (no ISR for TOV1 activated!)

	switch (g_adc_state) {
    119c:	11 30       	cpi	r17, 0x01	; 1
    119e:	59 f0       	breq	.+22     	; 0x11b6 <__vector_21+0x5a>
    11a0:	30 f0       	brcs	.+12     	; 0x11ae <__vector_21+0x52>
    11a2:	12 30       	cpi	r17, 0x02	; 2
    11a4:	79 f4       	brne	.+30     	; 0x11c4 <__vector_21+0x68>
			g_adc_state = ADC_STATE_PRE_TEMP;
		break;

		case ADC_STATE_PRE_TEMP:
			// drop one ADC value after switching MUX
			g_adc_state = ADC_STATE_VLD_TEMP;
    11a6:	83 e0       	ldi	r24, 0x03	; 3
    11a8:	80 93 71 04 	sts	0x0471, r24	; 0x800471 <g_adc_state>
		break;
    11ac:	10 c0       	rjmp	.+32     	; 0x11ce <__vector_21+0x72>
	//TIFR1 |= _BV(TOV1);							// Reset Timer1 overflow status bit (no ISR for TOV1 activated!)

	switch (g_adc_state) {
		case ADC_STATE_PRE_LDR:
			// drop one ADC value after switching MUX
			g_adc_state = ADC_STATE_VLD_LDR;
    11ae:	81 e0       	ldi	r24, 0x01	; 1
    11b0:	80 93 71 04 	sts	0x0471, r24	; 0x800471 <g_adc_state>
		break;
    11b4:	0c c0       	rjmp	.+24     	; 0x11ce <__vector_21+0x72>
 *
 * \param regval   ADC input mux selection and voltage reference
 */
static inline void adc_set_admux(uint8_t regval)
{
	ADMUX = regval;
    11b6:	88 ec       	ldi	r24, 0xC8	; 200
    11b8:	80 93 7c 00 	sts	0x007C, r24	; 0x80007c <__TEXT_REGION_LENGTH__+0x7e007c>

		case ADC_STATE_VLD_LDR:
			adc_set_admux(ADC_MUX_TEMPSENSE | ADC_VREF_1V1 | ADC_ADJUSTMENT_RIGHT);
			g_adc_state = ADC_STATE_PRE_TEMP;
    11bc:	82 e0       	ldi	r24, 0x02	; 2
    11be:	80 93 71 04 	sts	0x0471, r24	; 0x800471 <g_adc_state>
		break;
    11c2:	05 c0       	rjmp	.+10     	; 0x11ce <__vector_21+0x72>
    11c4:	80 ec       	ldi	r24, 0xC0	; 192
    11c6:	80 93 7c 00 	sts	0x007C, r24	; 0x80007c <__TEXT_REGION_LENGTH__+0x7e007c>

		case ADC_STATE_VLD_TEMP:
			// fall-through.
		default:
			adc_set_admux(ADC_MUX_ADC0 | ADC_VREF_1V1 | ADC_ADJUSTMENT_RIGHT);
			g_adc_state = ADC_STATE_PRE_LDR;
    11ca:	10 92 71 04 	sts	0x0471, r1	; 0x800471 <g_adc_state>
	}

	uint16_t adc_light_last = g_adc_light;
    11ce:	60 91 6d 04 	lds	r22, 0x046D	; 0x80046d <g_adc_light>
    11d2:	70 91 6e 04 	lds	r23, 0x046E	; 0x80046e <g_adc_light+0x1>
    11d6:	80 91 6f 04 	lds	r24, 0x046F	; 0x80046f <g_adc_light+0x2>
    11da:	90 91 70 04 	lds	r25, 0x0470	; 0x800470 <g_adc_light+0x3>
    11de:	0e 94 5b 1e 	call	0x3cb6	; 0x3cb6 <__fixunssfsi>
    11e2:	6b 01       	movw	r12, r22
    11e4:	7c 01       	movw	r14, r24
	uint16_t adc_temp_last  = g_adc_temp;
    11e6:	60 91 69 04 	lds	r22, 0x0469	; 0x800469 <g_adc_temp>
    11ea:	70 91 6a 04 	lds	r23, 0x046A	; 0x80046a <g_adc_temp+0x1>
    11ee:	80 91 6b 04 	lds	r24, 0x046B	; 0x80046b <g_adc_temp+0x2>
    11f2:	90 91 6c 04 	lds	r25, 0x046C	; 0x80046c <g_adc_temp+0x3>
    11f6:	0e 94 5b 1e 	call	0x3cb6	; 0x3cb6 <__fixunssfsi>

	/* SEI part */
	cpu_irq_enable();
    11fa:	78 94       	sei

	__vector_21__bottom(reason, adc_val, adc_light_last, adc_temp_last);
    11fc:	9b 01       	movw	r18, r22
    11fe:	a6 01       	movw	r20, r12
    1200:	be 01       	movw	r22, r28
    1202:	81 2f       	mov	r24, r17
    1204:	18 df       	rcall	.-464    	; 0x1036 <__vector_21__bottom>
}
    1206:	ff 91       	pop	r31
    1208:	ef 91       	pop	r30
    120a:	df 91       	pop	r29
    120c:	cf 91       	pop	r28
    120e:	bf 91       	pop	r27
    1210:	af 91       	pop	r26
    1212:	9f 91       	pop	r25
    1214:	8f 91       	pop	r24
    1216:	7f 91       	pop	r23
    1218:	6f 91       	pop	r22
    121a:	5f 91       	pop	r21
    121c:	4f 91       	pop	r20
    121e:	3f 91       	pop	r19
    1220:	2f 91       	pop	r18
    1222:	1f 91       	pop	r17
    1224:	ff 90       	pop	r15
    1226:	ef 90       	pop	r14
    1228:	df 90       	pop	r13
    122a:	cf 90       	pop	r12
    122c:	0f 90       	pop	r0
    122e:	0f be       	out	0x3f, r0	; 63
    1230:	0f 90       	pop	r0
    1232:	1f 90       	pop	r1
    1234:	18 95       	reti

00001236 <__vector_24>:
{	/* ANALOG COMP */
	s_bad_interrupt();
}

ISR(__vector_24, ISR_BLOCK)
{	/* TWI */
    1236:	1f 92       	push	r1
    1238:	0f 92       	push	r0
    123a:	0f b6       	in	r0, 0x3f	; 63
    123c:	0f 92       	push	r0
    123e:	11 24       	eor	r1, r1
    1240:	2f 93       	push	r18
    1242:	3f 93       	push	r19
    1244:	4f 93       	push	r20
    1246:	5f 93       	push	r21
    1248:	6f 93       	push	r22
    124a:	7f 93       	push	r23
    124c:	8f 93       	push	r24
    124e:	9f 93       	push	r25
    1250:	af 93       	push	r26
    1252:	bf 93       	push	r27
    1254:	cf 93       	push	r28
    1256:	df 93       	push	r29
    1258:	ef 93       	push	r30
    125a:	ff 93       	push	r31
	uint8_t tws = TWSR & (0b11111 << TWS3);
    125c:	80 91 b9 00 	lds	r24, 0x00B9	; 0x8000b9 <__TEXT_REGION_LENGTH__+0x7e00b9>
	uint8_t twd = TWDR;
    1260:	60 91 bb 00 	lds	r22, 0x00BB	; 0x8000bb <__TEXT_REGION_LENGTH__+0x7e00bb>
	uint8_t twcr_cur = TWCR;
    1264:	cc eb       	ldi	r28, 0xBC	; 188
    1266:	d0 e0       	ldi	r29, 0x00	; 0
    1268:	48 81       	ld	r20, Y

	uint8_t twcr_new = __vector_24__bottom(tws, twd, twcr_cur);
    126a:	88 7f       	andi	r24, 0xF8	; 248
    126c:	0e 94 79 19 	call	0x32f2	; 0x32f2 <__vector_24__bottom>
	TWCR = twcr_new | _BV(TWINT) | _BV(TWEN) | _BV(TWIE);
    1270:	85 68       	ori	r24, 0x85	; 133
    1272:	88 83       	st	Y, r24
}
    1274:	ff 91       	pop	r31
    1276:	ef 91       	pop	r30
    1278:	df 91       	pop	r29
    127a:	cf 91       	pop	r28
    127c:	bf 91       	pop	r27
    127e:	af 91       	pop	r26
    1280:	9f 91       	pop	r25
    1282:	8f 91       	pop	r24
    1284:	7f 91       	pop	r23
    1286:	6f 91       	pop	r22
    1288:	5f 91       	pop	r21
    128a:	4f 91       	pop	r20
    128c:	3f 91       	pop	r19
    128e:	2f 91       	pop	r18
    1290:	0f 90       	pop	r0
    1292:	0f be       	out	0x3f, r0	; 63
    1294:	0f 90       	pop	r0
    1296:	1f 90       	pop	r1
    1298:	18 95       	reti

0000129a <__vector_25>:

ISR(__vector_25, ISR_BLOCK)
{	/* SPM READY - Store Program Memory Ready */
    129a:	1f 92       	push	r1
    129c:	0f 92       	push	r0
    129e:	0f b6       	in	r0, 0x3f	; 63
    12a0:	0f 92       	push	r0
    12a2:	11 24       	eor	r1, r1
    12a4:	2f 93       	push	r18
    12a6:	3f 93       	push	r19
    12a8:	4f 93       	push	r20
    12aa:	5f 93       	push	r21
    12ac:	6f 93       	push	r22
    12ae:	7f 93       	push	r23
    12b0:	8f 93       	push	r24
    12b2:	9f 93       	push	r25
    12b4:	af 93       	push	r26
    12b6:	bf 93       	push	r27
    12b8:	ef 93       	push	r30

/* ISR routines */

static void s_bad_interrupt(void)
{
	asm_break();
    12ba:	ff 93       	push	r31
}

ISR(__vector_25, ISR_BLOCK)
{	/* SPM READY - Store Program Memory Ready */
	s_bad_interrupt();
}
    12bc:	99 dd       	rcall	.-1230   	; 0xdf0 <asm_break>
    12be:	ff 91       	pop	r31
    12c0:	ef 91       	pop	r30
    12c2:	bf 91       	pop	r27
    12c4:	af 91       	pop	r26
    12c6:	9f 91       	pop	r25
    12c8:	8f 91       	pop	r24
    12ca:	7f 91       	pop	r23
    12cc:	6f 91       	pop	r22
    12ce:	5f 91       	pop	r21
    12d0:	4f 91       	pop	r20
    12d2:	3f 91       	pop	r19
    12d4:	2f 91       	pop	r18
    12d6:	0f 90       	pop	r0
    12d8:	0f be       	out	0x3f, r0	; 63
    12da:	0f 90       	pop	r0
    12dc:	1f 90       	pop	r1
    12de:	18 95       	reti

000012e0 <__vector_23>:
    12e0:	1f 92       	push	r1
    12e2:	0f 92       	push	r0
    12e4:	0f b6       	in	r0, 0x3f	; 63
    12e6:	0f 92       	push	r0
    12e8:	11 24       	eor	r1, r1
    12ea:	2f 93       	push	r18
    12ec:	3f 93       	push	r19
    12ee:	4f 93       	push	r20
    12f0:	5f 93       	push	r21
    12f2:	6f 93       	push	r22
    12f4:	7f 93       	push	r23
    12f6:	8f 93       	push	r24
    12f8:	9f 93       	push	r25
    12fa:	af 93       	push	r26
    12fc:	bf 93       	push	r27
    12fe:	ef 93       	push	r30
    1300:	ff 93       	push	r31
    1302:	cb df       	rcall	.-106    	; 0x129a <__vector_25>
    1304:	ff 91       	pop	r31
    1306:	ef 91       	pop	r30
    1308:	bf 91       	pop	r27
    130a:	af 91       	pop	r26
    130c:	9f 91       	pop	r25
    130e:	8f 91       	pop	r24
    1310:	7f 91       	pop	r23
    1312:	6f 91       	pop	r22
    1314:	5f 91       	pop	r21
    1316:	4f 91       	pop	r20
    1318:	3f 91       	pop	r19
    131a:	2f 91       	pop	r18
    131c:	0f 90       	pop	r0
    131e:	0f be       	out	0x3f, r0	; 63
    1320:	0f 90       	pop	r0
    1322:	1f 90       	pop	r1
    1324:	18 95       	reti

00001326 <__vector_22>:
    1326:	1f 92       	push	r1
    1328:	0f 92       	push	r0
    132a:	0f b6       	in	r0, 0x3f	; 63
    132c:	0f 92       	push	r0
    132e:	11 24       	eor	r1, r1
    1330:	2f 93       	push	r18
    1332:	3f 93       	push	r19
    1334:	4f 93       	push	r20
    1336:	5f 93       	push	r21
    1338:	6f 93       	push	r22
    133a:	7f 93       	push	r23
    133c:	8f 93       	push	r24
    133e:	9f 93       	push	r25
    1340:	af 93       	push	r26
    1342:	bf 93       	push	r27
    1344:	ef 93       	push	r30
    1346:	ff 93       	push	r31
    1348:	a8 df       	rcall	.-176    	; 0x129a <__vector_25>
    134a:	ff 91       	pop	r31
    134c:	ef 91       	pop	r30
    134e:	bf 91       	pop	r27
    1350:	af 91       	pop	r26
    1352:	9f 91       	pop	r25
    1354:	8f 91       	pop	r24
    1356:	7f 91       	pop	r23
    1358:	6f 91       	pop	r22
    135a:	5f 91       	pop	r21
    135c:	4f 91       	pop	r20
    135e:	3f 91       	pop	r19
    1360:	2f 91       	pop	r18
    1362:	0f 90       	pop	r0
    1364:	0f be       	out	0x3f, r0	; 63
    1366:	0f 90       	pop	r0
    1368:	1f 90       	pop	r1
    136a:	18 95       	reti

0000136c <__vector_20>:
    136c:	1f 92       	push	r1
    136e:	0f 92       	push	r0
    1370:	0f b6       	in	r0, 0x3f	; 63
    1372:	0f 92       	push	r0
    1374:	11 24       	eor	r1, r1
    1376:	2f 93       	push	r18
    1378:	3f 93       	push	r19
    137a:	4f 93       	push	r20
    137c:	5f 93       	push	r21
    137e:	6f 93       	push	r22
    1380:	7f 93       	push	r23
    1382:	8f 93       	push	r24
    1384:	9f 93       	push	r25
    1386:	af 93       	push	r26
    1388:	bf 93       	push	r27
    138a:	ef 93       	push	r30
    138c:	ff 93       	push	r31
    138e:	85 df       	rcall	.-246    	; 0x129a <__vector_25>
    1390:	ff 91       	pop	r31
    1392:	ef 91       	pop	r30
    1394:	bf 91       	pop	r27
    1396:	af 91       	pop	r26
    1398:	9f 91       	pop	r25
    139a:	8f 91       	pop	r24
    139c:	7f 91       	pop	r23
    139e:	6f 91       	pop	r22
    13a0:	5f 91       	pop	r21
    13a2:	4f 91       	pop	r20
    13a4:	3f 91       	pop	r19
    13a6:	2f 91       	pop	r18
    13a8:	0f 90       	pop	r0
    13aa:	0f be       	out	0x3f, r0	; 63
    13ac:	0f 90       	pop	r0
    13ae:	1f 90       	pop	r1
    13b0:	18 95       	reti

000013b2 <__vector_19>:
    13b2:	1f 92       	push	r1
    13b4:	0f 92       	push	r0
    13b6:	0f b6       	in	r0, 0x3f	; 63
    13b8:	0f 92       	push	r0
    13ba:	11 24       	eor	r1, r1
    13bc:	2f 93       	push	r18
    13be:	3f 93       	push	r19
    13c0:	4f 93       	push	r20
    13c2:	5f 93       	push	r21
    13c4:	6f 93       	push	r22
    13c6:	7f 93       	push	r23
    13c8:	8f 93       	push	r24
    13ca:	9f 93       	push	r25
    13cc:	af 93       	push	r26
    13ce:	bf 93       	push	r27
    13d0:	ef 93       	push	r30
    13d2:	ff 93       	push	r31
    13d4:	62 df       	rcall	.-316    	; 0x129a <__vector_25>
    13d6:	ff 91       	pop	r31
    13d8:	ef 91       	pop	r30
    13da:	bf 91       	pop	r27
    13dc:	af 91       	pop	r26
    13de:	9f 91       	pop	r25
    13e0:	8f 91       	pop	r24
    13e2:	7f 91       	pop	r23
    13e4:	6f 91       	pop	r22
    13e6:	5f 91       	pop	r21
    13e8:	4f 91       	pop	r20
    13ea:	3f 91       	pop	r19
    13ec:	2f 91       	pop	r18
    13ee:	0f 90       	pop	r0
    13f0:	0f be       	out	0x3f, r0	; 63
    13f2:	0f 90       	pop	r0
    13f4:	1f 90       	pop	r1
    13f6:	18 95       	reti

000013f8 <__vector_18>:
    13f8:	1f 92       	push	r1
    13fa:	0f 92       	push	r0
    13fc:	0f b6       	in	r0, 0x3f	; 63
    13fe:	0f 92       	push	r0
    1400:	11 24       	eor	r1, r1
    1402:	2f 93       	push	r18
    1404:	3f 93       	push	r19
    1406:	4f 93       	push	r20
    1408:	5f 93       	push	r21
    140a:	6f 93       	push	r22
    140c:	7f 93       	push	r23
    140e:	8f 93       	push	r24
    1410:	9f 93       	push	r25
    1412:	af 93       	push	r26
    1414:	bf 93       	push	r27
    1416:	ef 93       	push	r30
    1418:	ff 93       	push	r31
    141a:	3f df       	rcall	.-386    	; 0x129a <__vector_25>
    141c:	ff 91       	pop	r31
    141e:	ef 91       	pop	r30
    1420:	bf 91       	pop	r27
    1422:	af 91       	pop	r26
    1424:	9f 91       	pop	r25
    1426:	8f 91       	pop	r24
    1428:	7f 91       	pop	r23
    142a:	6f 91       	pop	r22
    142c:	5f 91       	pop	r21
    142e:	4f 91       	pop	r20
    1430:	3f 91       	pop	r19
    1432:	2f 91       	pop	r18
    1434:	0f 90       	pop	r0
    1436:	0f be       	out	0x3f, r0	; 63
    1438:	0f 90       	pop	r0
    143a:	1f 90       	pop	r1
    143c:	18 95       	reti

0000143e <__vector_17>:
    143e:	1f 92       	push	r1
    1440:	0f 92       	push	r0
    1442:	0f b6       	in	r0, 0x3f	; 63
    1444:	0f 92       	push	r0
    1446:	11 24       	eor	r1, r1
    1448:	2f 93       	push	r18
    144a:	3f 93       	push	r19
    144c:	4f 93       	push	r20
    144e:	5f 93       	push	r21
    1450:	6f 93       	push	r22
    1452:	7f 93       	push	r23
    1454:	8f 93       	push	r24
    1456:	9f 93       	push	r25
    1458:	af 93       	push	r26
    145a:	bf 93       	push	r27
    145c:	ef 93       	push	r30
    145e:	ff 93       	push	r31
    1460:	1c df       	rcall	.-456    	; 0x129a <__vector_25>
    1462:	ff 91       	pop	r31
    1464:	ef 91       	pop	r30
    1466:	bf 91       	pop	r27
    1468:	af 91       	pop	r26
    146a:	9f 91       	pop	r25
    146c:	8f 91       	pop	r24
    146e:	7f 91       	pop	r23
    1470:	6f 91       	pop	r22
    1472:	5f 91       	pop	r21
    1474:	4f 91       	pop	r20
    1476:	3f 91       	pop	r19
    1478:	2f 91       	pop	r18
    147a:	0f 90       	pop	r0
    147c:	0f be       	out	0x3f, r0	; 63
    147e:	0f 90       	pop	r0
    1480:	1f 90       	pop	r1
    1482:	18 95       	reti

00001484 <__vector_16>:
    1484:	1f 92       	push	r1
    1486:	0f 92       	push	r0
    1488:	0f b6       	in	r0, 0x3f	; 63
    148a:	0f 92       	push	r0
    148c:	11 24       	eor	r1, r1
    148e:	2f 93       	push	r18
    1490:	3f 93       	push	r19
    1492:	4f 93       	push	r20
    1494:	5f 93       	push	r21
    1496:	6f 93       	push	r22
    1498:	7f 93       	push	r23
    149a:	8f 93       	push	r24
    149c:	9f 93       	push	r25
    149e:	af 93       	push	r26
    14a0:	bf 93       	push	r27
    14a2:	ef 93       	push	r30
    14a4:	ff 93       	push	r31
    14a6:	f9 de       	rcall	.-526    	; 0x129a <__vector_25>
    14a8:	ff 91       	pop	r31
    14aa:	ef 91       	pop	r30
    14ac:	bf 91       	pop	r27
    14ae:	af 91       	pop	r26
    14b0:	9f 91       	pop	r25
    14b2:	8f 91       	pop	r24
    14b4:	7f 91       	pop	r23
    14b6:	6f 91       	pop	r22
    14b8:	5f 91       	pop	r21
    14ba:	4f 91       	pop	r20
    14bc:	3f 91       	pop	r19
    14be:	2f 91       	pop	r18
    14c0:	0f 90       	pop	r0
    14c2:	0f be       	out	0x3f, r0	; 63
    14c4:	0f 90       	pop	r0
    14c6:	1f 90       	pop	r1
    14c8:	18 95       	reti

000014ca <__vector_15>:
    14ca:	1f 92       	push	r1
    14cc:	0f 92       	push	r0
    14ce:	0f b6       	in	r0, 0x3f	; 63
    14d0:	0f 92       	push	r0
    14d2:	11 24       	eor	r1, r1
    14d4:	2f 93       	push	r18
    14d6:	3f 93       	push	r19
    14d8:	4f 93       	push	r20
    14da:	5f 93       	push	r21
    14dc:	6f 93       	push	r22
    14de:	7f 93       	push	r23
    14e0:	8f 93       	push	r24
    14e2:	9f 93       	push	r25
    14e4:	af 93       	push	r26
    14e6:	bf 93       	push	r27
    14e8:	ef 93       	push	r30
    14ea:	ff 93       	push	r31
    14ec:	d6 de       	rcall	.-596    	; 0x129a <__vector_25>
    14ee:	ff 91       	pop	r31
    14f0:	ef 91       	pop	r30
    14f2:	bf 91       	pop	r27
    14f4:	af 91       	pop	r26
    14f6:	9f 91       	pop	r25
    14f8:	8f 91       	pop	r24
    14fa:	7f 91       	pop	r23
    14fc:	6f 91       	pop	r22
    14fe:	5f 91       	pop	r21
    1500:	4f 91       	pop	r20
    1502:	3f 91       	pop	r19
    1504:	2f 91       	pop	r18
    1506:	0f 90       	pop	r0
    1508:	0f be       	out	0x3f, r0	; 63
    150a:	0f 90       	pop	r0
    150c:	1f 90       	pop	r1
    150e:	18 95       	reti

00001510 <__vector_14>:
    1510:	1f 92       	push	r1
    1512:	0f 92       	push	r0
    1514:	0f b6       	in	r0, 0x3f	; 63
    1516:	0f 92       	push	r0
    1518:	11 24       	eor	r1, r1
    151a:	2f 93       	push	r18
    151c:	3f 93       	push	r19
    151e:	4f 93       	push	r20
    1520:	5f 93       	push	r21
    1522:	6f 93       	push	r22
    1524:	7f 93       	push	r23
    1526:	8f 93       	push	r24
    1528:	9f 93       	push	r25
    152a:	af 93       	push	r26
    152c:	bf 93       	push	r27
    152e:	ef 93       	push	r30
    1530:	ff 93       	push	r31
    1532:	b3 de       	rcall	.-666    	; 0x129a <__vector_25>
    1534:	ff 91       	pop	r31
    1536:	ef 91       	pop	r30
    1538:	bf 91       	pop	r27
    153a:	af 91       	pop	r26
    153c:	9f 91       	pop	r25
    153e:	8f 91       	pop	r24
    1540:	7f 91       	pop	r23
    1542:	6f 91       	pop	r22
    1544:	5f 91       	pop	r21
    1546:	4f 91       	pop	r20
    1548:	3f 91       	pop	r19
    154a:	2f 91       	pop	r18
    154c:	0f 90       	pop	r0
    154e:	0f be       	out	0x3f, r0	; 63
    1550:	0f 90       	pop	r0
    1552:	1f 90       	pop	r1
    1554:	18 95       	reti

00001556 <__vector_12>:
    1556:	1f 92       	push	r1
    1558:	0f 92       	push	r0
    155a:	0f b6       	in	r0, 0x3f	; 63
    155c:	0f 92       	push	r0
    155e:	11 24       	eor	r1, r1
    1560:	2f 93       	push	r18
    1562:	3f 93       	push	r19
    1564:	4f 93       	push	r20
    1566:	5f 93       	push	r21
    1568:	6f 93       	push	r22
    156a:	7f 93       	push	r23
    156c:	8f 93       	push	r24
    156e:	9f 93       	push	r25
    1570:	af 93       	push	r26
    1572:	bf 93       	push	r27
    1574:	ef 93       	push	r30
    1576:	ff 93       	push	r31
    1578:	90 de       	rcall	.-736    	; 0x129a <__vector_25>
    157a:	ff 91       	pop	r31
    157c:	ef 91       	pop	r30
    157e:	bf 91       	pop	r27
    1580:	af 91       	pop	r26
    1582:	9f 91       	pop	r25
    1584:	8f 91       	pop	r24
    1586:	7f 91       	pop	r23
    1588:	6f 91       	pop	r22
    158a:	5f 91       	pop	r21
    158c:	4f 91       	pop	r20
    158e:	3f 91       	pop	r19
    1590:	2f 91       	pop	r18
    1592:	0f 90       	pop	r0
    1594:	0f be       	out	0x3f, r0	; 63
    1596:	0f 90       	pop	r0
    1598:	1f 90       	pop	r1
    159a:	18 95       	reti

0000159c <__vector_11>:
    159c:	1f 92       	push	r1
    159e:	0f 92       	push	r0
    15a0:	0f b6       	in	r0, 0x3f	; 63
    15a2:	0f 92       	push	r0
    15a4:	11 24       	eor	r1, r1
    15a6:	2f 93       	push	r18
    15a8:	3f 93       	push	r19
    15aa:	4f 93       	push	r20
    15ac:	5f 93       	push	r21
    15ae:	6f 93       	push	r22
    15b0:	7f 93       	push	r23
    15b2:	8f 93       	push	r24
    15b4:	9f 93       	push	r25
    15b6:	af 93       	push	r26
    15b8:	bf 93       	push	r27
    15ba:	ef 93       	push	r30
    15bc:	ff 93       	push	r31
    15be:	6d de       	rcall	.-806    	; 0x129a <__vector_25>
    15c0:	ff 91       	pop	r31
    15c2:	ef 91       	pop	r30
    15c4:	bf 91       	pop	r27
    15c6:	af 91       	pop	r26
    15c8:	9f 91       	pop	r25
    15ca:	8f 91       	pop	r24
    15cc:	7f 91       	pop	r23
    15ce:	6f 91       	pop	r22
    15d0:	5f 91       	pop	r21
    15d2:	4f 91       	pop	r20
    15d4:	3f 91       	pop	r19
    15d6:	2f 91       	pop	r18
    15d8:	0f 90       	pop	r0
    15da:	0f be       	out	0x3f, r0	; 63
    15dc:	0f 90       	pop	r0
    15de:	1f 90       	pop	r1
    15e0:	18 95       	reti

000015e2 <__vector_10>:
    15e2:	1f 92       	push	r1
    15e4:	0f 92       	push	r0
    15e6:	0f b6       	in	r0, 0x3f	; 63
    15e8:	0f 92       	push	r0
    15ea:	11 24       	eor	r1, r1
    15ec:	2f 93       	push	r18
    15ee:	3f 93       	push	r19
    15f0:	4f 93       	push	r20
    15f2:	5f 93       	push	r21
    15f4:	6f 93       	push	r22
    15f6:	7f 93       	push	r23
    15f8:	8f 93       	push	r24
    15fa:	9f 93       	push	r25
    15fc:	af 93       	push	r26
    15fe:	bf 93       	push	r27
    1600:	ef 93       	push	r30
    1602:	ff 93       	push	r31
    1604:	4a de       	rcall	.-876    	; 0x129a <__vector_25>
    1606:	ff 91       	pop	r31
    1608:	ef 91       	pop	r30
    160a:	bf 91       	pop	r27
    160c:	af 91       	pop	r26
    160e:	9f 91       	pop	r25
    1610:	8f 91       	pop	r24
    1612:	7f 91       	pop	r23
    1614:	6f 91       	pop	r22
    1616:	5f 91       	pop	r21
    1618:	4f 91       	pop	r20
    161a:	3f 91       	pop	r19
    161c:	2f 91       	pop	r18
    161e:	0f 90       	pop	r0
    1620:	0f be       	out	0x3f, r0	; 63
    1622:	0f 90       	pop	r0
    1624:	1f 90       	pop	r1
    1626:	18 95       	reti

00001628 <__vector_8>:
    1628:	1f 92       	push	r1
    162a:	0f 92       	push	r0
    162c:	0f b6       	in	r0, 0x3f	; 63
    162e:	0f 92       	push	r0
    1630:	11 24       	eor	r1, r1
    1632:	2f 93       	push	r18
    1634:	3f 93       	push	r19
    1636:	4f 93       	push	r20
    1638:	5f 93       	push	r21
    163a:	6f 93       	push	r22
    163c:	7f 93       	push	r23
    163e:	8f 93       	push	r24
    1640:	9f 93       	push	r25
    1642:	af 93       	push	r26
    1644:	bf 93       	push	r27
    1646:	ef 93       	push	r30
    1648:	ff 93       	push	r31
    164a:	27 de       	rcall	.-946    	; 0x129a <__vector_25>
    164c:	ff 91       	pop	r31
    164e:	ef 91       	pop	r30
    1650:	bf 91       	pop	r27
    1652:	af 91       	pop	r26
    1654:	9f 91       	pop	r25
    1656:	8f 91       	pop	r24
    1658:	7f 91       	pop	r23
    165a:	6f 91       	pop	r22
    165c:	5f 91       	pop	r21
    165e:	4f 91       	pop	r20
    1660:	3f 91       	pop	r19
    1662:	2f 91       	pop	r18
    1664:	0f 90       	pop	r0
    1666:	0f be       	out	0x3f, r0	; 63
    1668:	0f 90       	pop	r0
    166a:	1f 90       	pop	r1
    166c:	18 95       	reti

0000166e <__vector_7>:
    166e:	1f 92       	push	r1
    1670:	0f 92       	push	r0
    1672:	0f b6       	in	r0, 0x3f	; 63
    1674:	0f 92       	push	r0
    1676:	11 24       	eor	r1, r1
    1678:	2f 93       	push	r18
    167a:	3f 93       	push	r19
    167c:	4f 93       	push	r20
    167e:	5f 93       	push	r21
    1680:	6f 93       	push	r22
    1682:	7f 93       	push	r23
    1684:	8f 93       	push	r24
    1686:	9f 93       	push	r25
    1688:	af 93       	push	r26
    168a:	bf 93       	push	r27
    168c:	ef 93       	push	r30
    168e:	ff 93       	push	r31
    1690:	04 de       	rcall	.-1016   	; 0x129a <__vector_25>
    1692:	ff 91       	pop	r31
    1694:	ef 91       	pop	r30
    1696:	bf 91       	pop	r27
    1698:	af 91       	pop	r26
    169a:	9f 91       	pop	r25
    169c:	8f 91       	pop	r24
    169e:	7f 91       	pop	r23
    16a0:	6f 91       	pop	r22
    16a2:	5f 91       	pop	r21
    16a4:	4f 91       	pop	r20
    16a6:	3f 91       	pop	r19
    16a8:	2f 91       	pop	r18
    16aa:	0f 90       	pop	r0
    16ac:	0f be       	out	0x3f, r0	; 63
    16ae:	0f 90       	pop	r0
    16b0:	1f 90       	pop	r1
    16b2:	18 95       	reti

000016b4 <__vector_6>:
    16b4:	1f 92       	push	r1
    16b6:	0f 92       	push	r0
    16b8:	0f b6       	in	r0, 0x3f	; 63
    16ba:	0f 92       	push	r0
    16bc:	11 24       	eor	r1, r1
    16be:	2f 93       	push	r18
    16c0:	3f 93       	push	r19
    16c2:	4f 93       	push	r20
    16c4:	5f 93       	push	r21
    16c6:	6f 93       	push	r22
    16c8:	7f 93       	push	r23
    16ca:	8f 93       	push	r24
    16cc:	9f 93       	push	r25
    16ce:	af 93       	push	r26
    16d0:	bf 93       	push	r27
    16d2:	ef 93       	push	r30
    16d4:	ff 93       	push	r31
    16d6:	e1 dd       	rcall	.-1086   	; 0x129a <__vector_25>
    16d8:	ff 91       	pop	r31
    16da:	ef 91       	pop	r30
    16dc:	bf 91       	pop	r27
    16de:	af 91       	pop	r26
    16e0:	9f 91       	pop	r25
    16e2:	8f 91       	pop	r24
    16e4:	7f 91       	pop	r23
    16e6:	6f 91       	pop	r22
    16e8:	5f 91       	pop	r21
    16ea:	4f 91       	pop	r20
    16ec:	3f 91       	pop	r19
    16ee:	2f 91       	pop	r18
    16f0:	0f 90       	pop	r0
    16f2:	0f be       	out	0x3f, r0	; 63
    16f4:	0f 90       	pop	r0
    16f6:	1f 90       	pop	r1
    16f8:	18 95       	reti

000016fa <__vector_5>:
    16fa:	1f 92       	push	r1
    16fc:	0f 92       	push	r0
    16fe:	0f b6       	in	r0, 0x3f	; 63
    1700:	0f 92       	push	r0
    1702:	11 24       	eor	r1, r1
    1704:	2f 93       	push	r18
    1706:	3f 93       	push	r19
    1708:	4f 93       	push	r20
    170a:	5f 93       	push	r21
    170c:	6f 93       	push	r22
    170e:	7f 93       	push	r23
    1710:	8f 93       	push	r24
    1712:	9f 93       	push	r25
    1714:	af 93       	push	r26
    1716:	bf 93       	push	r27
    1718:	ef 93       	push	r30
    171a:	ff 93       	push	r31
    171c:	be dd       	rcall	.-1156   	; 0x129a <__vector_25>
    171e:	ff 91       	pop	r31
    1720:	ef 91       	pop	r30
    1722:	bf 91       	pop	r27
    1724:	af 91       	pop	r26
    1726:	9f 91       	pop	r25
    1728:	8f 91       	pop	r24
    172a:	7f 91       	pop	r23
    172c:	6f 91       	pop	r22
    172e:	5f 91       	pop	r21
    1730:	4f 91       	pop	r20
    1732:	3f 91       	pop	r19
    1734:	2f 91       	pop	r18
    1736:	0f 90       	pop	r0
    1738:	0f be       	out	0x3f, r0	; 63
    173a:	0f 90       	pop	r0
    173c:	1f 90       	pop	r1
    173e:	18 95       	reti

00001740 <__vector_4>:
    1740:	1f 92       	push	r1
    1742:	0f 92       	push	r0
    1744:	0f b6       	in	r0, 0x3f	; 63
    1746:	0f 92       	push	r0
    1748:	11 24       	eor	r1, r1
    174a:	2f 93       	push	r18
    174c:	3f 93       	push	r19
    174e:	4f 93       	push	r20
    1750:	5f 93       	push	r21
    1752:	6f 93       	push	r22
    1754:	7f 93       	push	r23
    1756:	8f 93       	push	r24
    1758:	9f 93       	push	r25
    175a:	af 93       	push	r26
    175c:	bf 93       	push	r27
    175e:	ef 93       	push	r30
    1760:	ff 93       	push	r31
    1762:	9b dd       	rcall	.-1226   	; 0x129a <__vector_25>
    1764:	ff 91       	pop	r31
    1766:	ef 91       	pop	r30
    1768:	bf 91       	pop	r27
    176a:	af 91       	pop	r26
    176c:	9f 91       	pop	r25
    176e:	8f 91       	pop	r24
    1770:	7f 91       	pop	r23
    1772:	6f 91       	pop	r22
    1774:	5f 91       	pop	r21
    1776:	4f 91       	pop	r20
    1778:	3f 91       	pop	r19
    177a:	2f 91       	pop	r18
    177c:	0f 90       	pop	r0
    177e:	0f be       	out	0x3f, r0	; 63
    1780:	0f 90       	pop	r0
    1782:	1f 90       	pop	r1
    1784:	18 95       	reti

00001786 <__vector_3>:
    1786:	1f 92       	push	r1
    1788:	0f 92       	push	r0
    178a:	0f b6       	in	r0, 0x3f	; 63
    178c:	0f 92       	push	r0
    178e:	11 24       	eor	r1, r1
    1790:	2f 93       	push	r18
    1792:	3f 93       	push	r19
    1794:	4f 93       	push	r20
    1796:	5f 93       	push	r21
    1798:	6f 93       	push	r22
    179a:	7f 93       	push	r23
    179c:	8f 93       	push	r24
    179e:	9f 93       	push	r25
    17a0:	af 93       	push	r26
    17a2:	bf 93       	push	r27
    17a4:	ef 93       	push	r30
    17a6:	ff 93       	push	r31
    17a8:	78 dd       	rcall	.-1296   	; 0x129a <__vector_25>
    17aa:	ff 91       	pop	r31
    17ac:	ef 91       	pop	r30
    17ae:	bf 91       	pop	r27
    17b0:	af 91       	pop	r26
    17b2:	9f 91       	pop	r25
    17b4:	8f 91       	pop	r24
    17b6:	7f 91       	pop	r23
    17b8:	6f 91       	pop	r22
    17ba:	5f 91       	pop	r21
    17bc:	4f 91       	pop	r20
    17be:	3f 91       	pop	r19
    17c0:	2f 91       	pop	r18
    17c2:	0f 90       	pop	r0
    17c4:	0f be       	out	0x3f, r0	; 63
    17c6:	0f 90       	pop	r0
    17c8:	1f 90       	pop	r1
    17ca:	18 95       	reti

000017cc <__vector_2>:
    17cc:	1f 92       	push	r1
    17ce:	0f 92       	push	r0
    17d0:	0f b6       	in	r0, 0x3f	; 63
    17d2:	0f 92       	push	r0
    17d4:	11 24       	eor	r1, r1
    17d6:	2f 93       	push	r18
    17d8:	3f 93       	push	r19
    17da:	4f 93       	push	r20
    17dc:	5f 93       	push	r21
    17de:	6f 93       	push	r22
    17e0:	7f 93       	push	r23
    17e2:	8f 93       	push	r24
    17e4:	9f 93       	push	r25
    17e6:	af 93       	push	r26
    17e8:	bf 93       	push	r27
    17ea:	ef 93       	push	r30
    17ec:	ff 93       	push	r31
    17ee:	55 dd       	rcall	.-1366   	; 0x129a <__vector_25>
    17f0:	ff 91       	pop	r31
    17f2:	ef 91       	pop	r30
    17f4:	bf 91       	pop	r27
    17f6:	af 91       	pop	r26
    17f8:	9f 91       	pop	r25
    17fa:	8f 91       	pop	r24
    17fc:	7f 91       	pop	r23
    17fe:	6f 91       	pop	r22
    1800:	5f 91       	pop	r21
    1802:	4f 91       	pop	r20
    1804:	3f 91       	pop	r19
    1806:	2f 91       	pop	r18
    1808:	0f 90       	pop	r0
    180a:	0f be       	out	0x3f, r0	; 63
    180c:	0f 90       	pop	r0
    180e:	1f 90       	pop	r1
    1810:	18 95       	reti

00001812 <__vector_1>:
    1812:	1f 92       	push	r1
    1814:	0f 92       	push	r0
    1816:	0f b6       	in	r0, 0x3f	; 63
    1818:	0f 92       	push	r0
    181a:	11 24       	eor	r1, r1
    181c:	2f 93       	push	r18
    181e:	3f 93       	push	r19
    1820:	4f 93       	push	r20
    1822:	5f 93       	push	r21
    1824:	6f 93       	push	r22
    1826:	7f 93       	push	r23
    1828:	8f 93       	push	r24
    182a:	9f 93       	push	r25
    182c:	af 93       	push	r26
    182e:	bf 93       	push	r27
    1830:	ef 93       	push	r30
    1832:	ff 93       	push	r31
    1834:	32 dd       	rcall	.-1436   	; 0x129a <__vector_25>
    1836:	ff 91       	pop	r31
    1838:	ef 91       	pop	r30
    183a:	bf 91       	pop	r27
    183c:	af 91       	pop	r26
    183e:	9f 91       	pop	r25
    1840:	8f 91       	pop	r24
    1842:	7f 91       	pop	r23
    1844:	6f 91       	pop	r22
    1846:	5f 91       	pop	r21
    1848:	4f 91       	pop	r20
    184a:	3f 91       	pop	r19
    184c:	2f 91       	pop	r18
    184e:	0f 90       	pop	r0
    1850:	0f be       	out	0x3f, r0	; 63
    1852:	0f 90       	pop	r0
    1854:	1f 90       	pop	r1
    1856:	18 95       	reti

00001858 <cpu_irq_save>:
}


void isr_lcd_write(const char *strbuf)
{
	gfx_mono_draw_string(strbuf, g_lcd_pencil_x, g_lcd_pencil_y, lcd_get_sysfont());
    1858:	cf 93       	push	r28
    185a:	df 93       	push	r29
    185c:	1f 92       	push	r1
    185e:	cd b7       	in	r28, 0x3d	; 61
    1860:	de b7       	in	r29, 0x3e	; 62
    1862:	8f b7       	in	r24, 0x3f	; 63
    1864:	89 83       	std	Y+1, r24	; 0x01
    1866:	f8 94       	cli
    1868:	89 81       	ldd	r24, Y+1	; 0x01
    186a:	0f 90       	pop	r0
    186c:	df 91       	pop	r29
    186e:	cf 91       	pop	r28
    1870:	08 95       	ret

00001872 <__portable_avr_delay_cycles>:
    1872:	04 c0       	rjmp	.+8      	; 0x187c <__portable_avr_delay_cycles+0xa>
    1874:	61 50       	subi	r22, 0x01	; 1
    1876:	71 09       	sbc	r23, r1
    1878:	81 09       	sbc	r24, r1
    187a:	91 09       	sbc	r25, r1
    187c:	61 15       	cp	r22, r1
    187e:	71 05       	cpc	r23, r1
    1880:	81 05       	cpc	r24, r1
    1882:	91 05       	cpc	r25, r1
    1884:	b9 f7       	brne	.-18     	; 0x1874 <__portable_avr_delay_cycles+0x2>
    1886:	08 95       	ret

00001888 <lcd_bus_read_status>:
    1888:	e7 df       	rcall	.-50     	; 0x1858 <cpu_irq_save>
    188a:	98 2f       	mov	r25, r24
    188c:	8f ef       	ldi	r24, 0xFF	; 255
    188e:	8b b9       	out	0x0b, r24	; 11
    1890:	1a b8       	out	0x0a, r1	; 10
    1892:	28 98       	cbi	0x05, 0	; 5
    1894:	2c 9a       	sbi	0x05, 4	; 5
    1896:	2d 9a       	sbi	0x05, 5	; 5
    1898:	2d 98       	cbi	0x05, 5	; 5
    189a:	89 b1       	in	r24, 0x09	; 9
    189c:	9f bf       	out	0x3f, r25	; 63
    189e:	08 95       	ret

000018a0 <lcd_bus_write_cmd>:
    18a0:	cf 93       	push	r28
    18a2:	c8 2f       	mov	r28, r24
    18a4:	d9 df       	rcall	.-78     	; 0x1858 <cpu_irq_save>
    18a6:	cb b9       	out	0x0b, r28	; 11
    18a8:	9f ef       	ldi	r25, 0xFF	; 255
    18aa:	9a b9       	out	0x0a, r25	; 10
    18ac:	28 98       	cbi	0x05, 0	; 5
    18ae:	2c 98       	cbi	0x05, 4	; 5
    18b0:	2d 9a       	sbi	0x05, 5	; 5
    18b2:	2d 98       	cbi	0x05, 5	; 5
    18b4:	8f bf       	out	0x3f, r24	; 63
    18b6:	cf 91       	pop	r28
    18b8:	08 95       	ret

000018ba <lcd_bus_write_ram>:
    18ba:	cf 93       	push	r28
    18bc:	c8 2f       	mov	r28, r24
    18be:	cc df       	rcall	.-104    	; 0x1858 <cpu_irq_save>
    18c0:	cb b9       	out	0x0b, r28	; 11
    18c2:	9f ef       	ldi	r25, 0xFF	; 255
    18c4:	9a b9       	out	0x0a, r25	; 10
    18c6:	28 9a       	sbi	0x05, 0	; 5
    18c8:	2c 98       	cbi	0x05, 4	; 5
    18ca:	2d 9a       	sbi	0x05, 5	; 5
    18cc:	2d 98       	cbi	0x05, 5	; 5
    18ce:	8f bf       	out	0x3f, r24	; 63
    18d0:	cf 91       	pop	r28
    18d2:	08 95       	ret

000018d4 <lcd_bus_read_ram>:
    18d4:	c1 df       	rcall	.-126    	; 0x1858 <cpu_irq_save>
    18d6:	98 2f       	mov	r25, r24
    18d8:	8f ef       	ldi	r24, 0xFF	; 255
    18da:	8b b9       	out	0x0b, r24	; 11
    18dc:	1a b8       	out	0x0a, r1	; 10
    18de:	28 9a       	sbi	0x05, 0	; 5
    18e0:	2c 9a       	sbi	0x05, 4	; 5
    18e2:	2d 9a       	sbi	0x05, 5	; 5
    18e4:	2d 98       	cbi	0x05, 5	; 5
    18e6:	80 91 0c 04 	lds	r24, 0x040C	; 0x80040c <s_lcd_ram_read_nonvalid>
    18ea:	88 23       	and	r24, r24
    18ec:	19 f0       	breq	.+6      	; 0x18f4 <lcd_bus_read_ram+0x20>
    18ee:	89 b1       	in	r24, 0x09	; 9
    18f0:	2d 9a       	sbi	0x05, 5	; 5
    18f2:	2d 98       	cbi	0x05, 5	; 5
    18f4:	89 b1       	in	r24, 0x09	; 9
    18f6:	10 92 0c 04 	sts	0x040C, r1	; 0x80040c <s_lcd_ram_read_nonvalid>
    18fa:	9f bf       	out	0x3f, r25	; 63
    18fc:	08 95       	ret

000018fe <lcd_contrast_update>:
    18fe:	81 e8       	ldi	r24, 0x81	; 129
    1900:	cf df       	rcall	.-98     	; 0x18a0 <lcd_bus_write_cmd>
    1902:	80 91 63 04 	lds	r24, 0x0463	; 0x800463 <g_lcd_contrast_pm>
    1906:	8f 73       	andi	r24, 0x3F	; 63
    1908:	80 68       	ori	r24, 0x80	; 128
    190a:	ca cf       	rjmp	.-108    	; 0x18a0 <lcd_bus_write_cmd>

0000190c <lcd_enable.part.0>:
    190c:	8d e2       	ldi	r24, 0x2D	; 45
    190e:	c8 df       	rcall	.-112    	; 0x18a0 <lcd_bus_write_cmd>
    1910:	84 e2       	ldi	r24, 0x24	; 36
    1912:	c6 df       	rcall	.-116    	; 0x18a0 <lcd_bus_write_cmd>
    1914:	8a ee       	ldi	r24, 0xEA	; 234
    1916:	c4 df       	rcall	.-120    	; 0x18a0 <lcd_bus_write_cmd>
    1918:	f2 df       	rcall	.-28     	; 0x18fe <lcd_contrast_update>
    191a:	88 ec       	ldi	r24, 0xC8	; 200
    191c:	c1 df       	rcall	.-126    	; 0x18a0 <lcd_bus_write_cmd>
    191e:	88 e8       	ldi	r24, 0x88	; 136
    1920:	bf df       	rcall	.-130    	; 0x18a0 <lcd_bus_write_cmd>
    1922:	80 e4       	ldi	r24, 0x40	; 64
    1924:	bd df       	rcall	.-134    	; 0x18a0 <lcd_bus_write_cmd>
    1926:	80 e9       	ldi	r24, 0x90	; 144
    1928:	bb df       	rcall	.-138    	; 0x18a0 <lcd_bus_write_cmd>
    192a:	80 eb       	ldi	r24, 0xB0	; 176
    192c:	b9 df       	rcall	.-142    	; 0x18a0 <lcd_bus_write_cmd>
    192e:	80 e0       	ldi	r24, 0x00	; 0
    1930:	b7 df       	rcall	.-146    	; 0x18a0 <lcd_bus_write_cmd>
    1932:	80 e1       	ldi	r24, 0x10	; 16
    1934:	b5 df       	rcall	.-150    	; 0x18a0 <lcd_bus_write_cmd>
    1936:	81 e0       	ldi	r24, 0x01	; 1
    1938:	80 93 0c 04 	sts	0x040C, r24	; 0x80040c <s_lcd_ram_read_nonvalid>
    193c:	8f ee       	ldi	r24, 0xEF	; 239
    193e:	b0 df       	rcall	.-160    	; 0x18a0 <lcd_bus_write_cmd>
    1940:	8e ee       	ldi	r24, 0xEE	; 238
    1942:	ae df       	rcall	.-164    	; 0x18a0 <lcd_bus_write_cmd>
    1944:	84 ea       	ldi	r24, 0xA4	; 164
    1946:	ac df       	rcall	.-168    	; 0x18a0 <lcd_bus_write_cmd>
    1948:	86 ea       	ldi	r24, 0xA6	; 166
    194a:	aa df       	rcall	.-172    	; 0x18a0 <lcd_bus_write_cmd>
    194c:	8f ea       	ldi	r24, 0xAF	; 175
    194e:	a8 cf       	rjmp	.-176    	; 0x18a0 <lcd_bus_write_cmd>

00001950 <lcd_page_set>:
    1950:	80 31       	cpi	r24, 0x10	; 16
    1952:	28 f4       	brcc	.+10     	; 0x195e <lcd_page_set+0xe>
    1954:	80 6b       	ori	r24, 0xB0	; 176
    1956:	a4 df       	rcall	.-184    	; 0x18a0 <lcd_bus_write_cmd>
    1958:	81 e0       	ldi	r24, 0x01	; 1
    195a:	80 93 0c 04 	sts	0x040C, r24	; 0x80040c <s_lcd_ram_read_nonvalid>
    195e:	08 95       	ret

00001960 <lcd_col_set>:
    1960:	cf 93       	push	r28
    1962:	80 3f       	cpi	r24, 0xF0	; 240
    1964:	58 f4       	brcc	.+22     	; 0x197c <lcd_col_set+0x1c>
    1966:	c8 2f       	mov	r28, r24
    1968:	8f 70       	andi	r24, 0x0F	; 15
    196a:	9a df       	rcall	.-204    	; 0x18a0 <lcd_bus_write_cmd>
    196c:	8c 2f       	mov	r24, r28
    196e:	82 95       	swap	r24
    1970:	8f 70       	andi	r24, 0x0F	; 15
    1972:	80 61       	ori	r24, 0x10	; 16
    1974:	95 df       	rcall	.-214    	; 0x18a0 <lcd_bus_write_cmd>
    1976:	81 e0       	ldi	r24, 0x01	; 1
    1978:	80 93 0c 04 	sts	0x040C, r24	; 0x80040c <s_lcd_ram_read_nonvalid>
    197c:	cf 91       	pop	r28
    197e:	08 95       	ret

00001980 <lcd_cr>:
    1980:	80 e0       	ldi	r24, 0x00	; 0
    1982:	8e df       	rcall	.-228    	; 0x18a0 <lcd_bus_write_cmd>
    1984:	80 e1       	ldi	r24, 0x10	; 16
    1986:	8c df       	rcall	.-232    	; 0x18a0 <lcd_bus_write_cmd>
    1988:	81 e0       	ldi	r24, 0x01	; 1
    198a:	80 93 0c 04 	sts	0x040C, r24	; 0x80040c <s_lcd_ram_read_nonvalid>
    198e:	08 95       	ret

00001990 <lcd_home>:
    1990:	80 eb       	ldi	r24, 0xB0	; 176
    1992:	86 df       	rcall	.-244    	; 0x18a0 <lcd_bus_write_cmd>
    1994:	f5 cf       	rjmp	.-22     	; 0x1980 <lcd_cr>

00001996 <lcd_cls>:
    1996:	cf 93       	push	r28
    1998:	df 93       	push	r29
    199a:	c0 e0       	ldi	r28, 0x00	; 0
    199c:	8c 2f       	mov	r24, r28
    199e:	80 6b       	ori	r24, 0xB0	; 176
    19a0:	7f df       	rcall	.-258    	; 0x18a0 <lcd_bus_write_cmd>
    19a2:	80 e0       	ldi	r24, 0x00	; 0
    19a4:	7d df       	rcall	.-262    	; 0x18a0 <lcd_bus_write_cmd>
    19a6:	80 e1       	ldi	r24, 0x10	; 16
    19a8:	7b df       	rcall	.-266    	; 0x18a0 <lcd_bus_write_cmd>
    19aa:	d0 ef       	ldi	r29, 0xF0	; 240
    19ac:	80 e0       	ldi	r24, 0x00	; 0
    19ae:	85 df       	rcall	.-246    	; 0x18ba <lcd_bus_write_ram>
    19b0:	d1 50       	subi	r29, 0x01	; 1
    19b2:	e1 f7       	brne	.-8      	; 0x19ac <lcd_cls+0x16>
    19b4:	cf 5f       	subi	r28, 0xFF	; 255
    19b6:	c0 31       	cpi	r28, 0x10	; 16
    19b8:	89 f7       	brne	.-30     	; 0x199c <lcd_cls+0x6>
    19ba:	df 91       	pop	r29
    19bc:	cf 91       	pop	r28
    19be:	e8 cf       	rjmp	.-48     	; 0x1990 <lcd_home>

000019c0 <lcd_show_template>:
    19c0:	ff 92       	push	r15
    19c2:	0f 93       	push	r16
    19c4:	1f 93       	push	r17
    19c6:	cf 93       	push	r28
    19c8:	df 93       	push	r29
    19ca:	6a e0       	ldi	r22, 0x0A	; 10
    19cc:	71 e0       	ldi	r23, 0x01	; 1
    19ce:	8c ed       	ldi	r24, 0xDC	; 220
    19d0:	93 e0       	ldi	r25, 0x03	; 3
    19d2:	0e 94 2c 20 	call	0x4058	; 0x4058 <strcpy>
    19d6:	23 e0       	ldi	r18, 0x03	; 3
    19d8:	31 e0       	ldi	r19, 0x01	; 1
    19da:	4b e0       	ldi	r20, 0x0B	; 11
    19dc:	63 e0       	ldi	r22, 0x03	; 3
    19de:	8c ed       	ldi	r24, 0xDC	; 220
    19e0:	93 e0       	ldi	r25, 0x03	; 3
    19e2:	da d9       	rcall	.-3148   	; 0xd98 <gfx_mono_draw_string>
    19e4:	67 e1       	ldi	r22, 0x17	; 23
    19e6:	71 e0       	ldi	r23, 0x01	; 1
    19e8:	8c ed       	ldi	r24, 0xDC	; 220
    19ea:	93 e0       	ldi	r25, 0x03	; 3
    19ec:	0e 94 2c 20 	call	0x4058	; 0x4058 <strcpy>
    19f0:	23 e0       	ldi	r18, 0x03	; 3
    19f2:	31 e0       	ldi	r19, 0x01	; 1
    19f4:	44 e1       	ldi	r20, 0x14	; 20
    19f6:	63 e0       	ldi	r22, 0x03	; 3
    19f8:	8c ed       	ldi	r24, 0xDC	; 220
    19fa:	93 e0       	ldi	r25, 0x03	; 3
    19fc:	cd d9       	rcall	.-3174   	; 0xd98 <gfx_mono_draw_string>
    19fe:	61 e2       	ldi	r22, 0x21	; 33
    1a00:	71 e0       	ldi	r23, 0x01	; 1
    1a02:	8c ed       	ldi	r24, 0xDC	; 220
    1a04:	93 e0       	ldi	r25, 0x03	; 3
    1a06:	0e 94 2c 20 	call	0x4058	; 0x4058 <strcpy>
    1a0a:	23 e0       	ldi	r18, 0x03	; 3
    1a0c:	31 e0       	ldi	r19, 0x01	; 1
    1a0e:	4d e1       	ldi	r20, 0x1D	; 29
    1a10:	63 e0       	ldi	r22, 0x03	; 3
    1a12:	8c ed       	ldi	r24, 0xDC	; 220
    1a14:	93 e0       	ldi	r25, 0x03	; 3
    1a16:	c0 d9       	rcall	.-3200   	; 0xd98 <gfx_mono_draw_string>
    1a18:	1f 92       	push	r1
    1a1a:	1f 92       	push	r1
    1a1c:	1f 92       	push	r1
    1a1e:	1f 92       	push	r1
    1a20:	88 e3       	ldi	r24, 0x38	; 56
    1a22:	91 e0       	ldi	r25, 0x01	; 1
    1a24:	9f 93       	push	r25
    1a26:	8f 93       	push	r24
    1a28:	1f 92       	push	r1
    1a2a:	10 e3       	ldi	r17, 0x30	; 48
    1a2c:	1f 93       	push	r17
    1a2e:	cc ed       	ldi	r28, 0xDC	; 220
    1a30:	d3 e0       	ldi	r29, 0x03	; 3
    1a32:	df 93       	push	r29
    1a34:	cf 93       	push	r28
    1a36:	0e 94 33 20 	call	0x4066	; 0x4066 <snprintf>
    1a3a:	23 e0       	ldi	r18, 0x03	; 3
    1a3c:	31 e0       	ldi	r19, 0x01	; 1
    1a3e:	46 e2       	ldi	r20, 0x26	; 38
    1a40:	63 e0       	ldi	r22, 0x03	; 3
    1a42:	ce 01       	movw	r24, r28
    1a44:	a9 d9       	rcall	.-3246   	; 0xd98 <gfx_mono_draw_string>
    1a46:	1f 92       	push	r1
    1a48:	1f 92       	push	r1
    1a4a:	1f 92       	push	r1
    1a4c:	1f 92       	push	r1
    1a4e:	1f 92       	push	r1
    1a50:	1f 92       	push	r1
    1a52:	1f 92       	push	r1
    1a54:	1f 92       	push	r1
    1a56:	80 e5       	ldi	r24, 0x50	; 80
    1a58:	91 e0       	ldi	r25, 0x01	; 1
    1a5a:	9f 93       	push	r25
    1a5c:	8f 93       	push	r24
    1a5e:	1f 92       	push	r1
    1a60:	1f 93       	push	r17
    1a62:	df 93       	push	r29
    1a64:	cf 93       	push	r28
    1a66:	0e 94 33 20 	call	0x4066	; 0x4066 <snprintf>
    1a6a:	23 e0       	ldi	r18, 0x03	; 3
    1a6c:	31 e0       	ldi	r19, 0x01	; 1
    1a6e:	4f e2       	ldi	r20, 0x2F	; 47
    1a70:	63 e0       	ldi	r22, 0x03	; 3
    1a72:	ce 01       	movw	r24, r28
    1a74:	91 d9       	rcall	.-3294   	; 0xd98 <gfx_mono_draw_string>
    1a76:	1f 92       	push	r1
    1a78:	1f 92       	push	r1
    1a7a:	1f 92       	push	r1
    1a7c:	1f 92       	push	r1
    1a7e:	83 e7       	ldi	r24, 0x73	; 115
    1a80:	91 e0       	ldi	r25, 0x01	; 1
    1a82:	9f 93       	push	r25
    1a84:	8f 93       	push	r24
    1a86:	1f 92       	push	r1
    1a88:	1f 93       	push	r17
    1a8a:	df 93       	push	r29
    1a8c:	cf 93       	push	r28
    1a8e:	0e 94 33 20 	call	0x4066	; 0x4066 <snprintf>
    1a92:	8d b7       	in	r24, 0x3d	; 61
    1a94:	9e b7       	in	r25, 0x3e	; 62
    1a96:	82 96       	adiw	r24, 0x22	; 34
    1a98:	0f b6       	in	r0, 0x3f	; 63
    1a9a:	f8 94       	cli
    1a9c:	9e bf       	out	0x3e, r25	; 62
    1a9e:	0f be       	out	0x3f, r0	; 63
    1aa0:	8d bf       	out	0x3d, r24	; 61
    1aa2:	23 e0       	ldi	r18, 0x03	; 3
    1aa4:	31 e0       	ldi	r19, 0x01	; 1
    1aa6:	48 e3       	ldi	r20, 0x38	; 56
    1aa8:	63 e0       	ldi	r22, 0x03	; 3
    1aaa:	ce 01       	movw	r24, r28
    1aac:	75 d9       	rcall	.-3350   	; 0xd98 <gfx_mono_draw_string>
    1aae:	1f 92       	push	r1
    1ab0:	1f 92       	push	r1
    1ab2:	1f 92       	push	r1
    1ab4:	1f 92       	push	r1
    1ab6:	88 e8       	ldi	r24, 0x88	; 136
    1ab8:	91 e0       	ldi	r25, 0x01	; 1
    1aba:	9f 93       	push	r25
    1abc:	8f 93       	push	r24
    1abe:	1f 92       	push	r1
    1ac0:	1f 93       	push	r17
    1ac2:	df 93       	push	r29
    1ac4:	cf 93       	push	r28
    1ac6:	0e 94 33 20 	call	0x4066	; 0x4066 <snprintf>
    1aca:	23 e0       	ldi	r18, 0x03	; 3
    1acc:	31 e0       	ldi	r19, 0x01	; 1
    1ace:	48 e3       	ldi	r20, 0x38	; 56
    1ad0:	6b e7       	ldi	r22, 0x7B	; 123
    1ad2:	ce 01       	movw	r24, r28
    1ad4:	61 d9       	rcall	.-3390   	; 0xd98 <gfx_mono_draw_string>
    1ad6:	1f 92       	push	r1
    1ad8:	1f 92       	push	r1
    1ada:	1f 92       	push	r1
    1adc:	1f 92       	push	r1
    1ade:	1f 92       	push	r1
    1ae0:	1f 92       	push	r1
    1ae2:	8e e9       	ldi	r24, 0x9E	; 158
    1ae4:	91 e0       	ldi	r25, 0x01	; 1
    1ae6:	9f 93       	push	r25
    1ae8:	8f 93       	push	r24
    1aea:	1f 92       	push	r1
    1aec:	1f 93       	push	r17
    1aee:	df 93       	push	r29
    1af0:	cf 93       	push	r28
    1af2:	0e 94 33 20 	call	0x4066	; 0x4066 <snprintf>
    1af6:	23 e0       	ldi	r18, 0x03	; 3
    1af8:	31 e0       	ldi	r19, 0x01	; 1
    1afa:	41 e4       	ldi	r20, 0x41	; 65
    1afc:	63 e0       	ldi	r22, 0x03	; 3
    1afe:	ce 01       	movw	r24, r28
    1b00:	4b d9       	rcall	.-3434   	; 0xd98 <gfx_mono_draw_string>
    1b02:	1f 92       	push	r1
    1b04:	1f 92       	push	r1
    1b06:	1f 92       	push	r1
    1b08:	1f 92       	push	r1
    1b0a:	8b ec       	ldi	r24, 0xCB	; 203
    1b0c:	91 e0       	ldi	r25, 0x01	; 1
    1b0e:	9f 93       	push	r25
    1b10:	8f 93       	push	r24
    1b12:	1f 92       	push	r1
    1b14:	1f 93       	push	r17
    1b16:	df 93       	push	r29
    1b18:	cf 93       	push	r28
    1b1a:	0e 94 33 20 	call	0x4066	; 0x4066 <snprintf>
    1b1e:	8d b7       	in	r24, 0x3d	; 61
    1b20:	9e b7       	in	r25, 0x3e	; 62
    1b22:	80 96       	adiw	r24, 0x20	; 32
    1b24:	0f b6       	in	r0, 0x3f	; 63
    1b26:	f8 94       	cli
    1b28:	9e bf       	out	0x3e, r25	; 62
    1b2a:	0f be       	out	0x3f, r0	; 63
    1b2c:	8d bf       	out	0x3d, r24	; 61
    1b2e:	23 e0       	ldi	r18, 0x03	; 3
    1b30:	31 e0       	ldi	r19, 0x01	; 1
    1b32:	4a e4       	ldi	r20, 0x4A	; 74
    1b34:	63 e0       	ldi	r22, 0x03	; 3
    1b36:	ce 01       	movw	r24, r28
    1b38:	2f d9       	rcall	.-3490   	; 0xd98 <gfx_mono_draw_string>
    1b3a:	1f 92       	push	r1
    1b3c:	1f 92       	push	r1
    1b3e:	1f 92       	push	r1
    1b40:	1f 92       	push	r1
    1b42:	8f ed       	ldi	r24, 0xDF	; 223
    1b44:	91 e0       	ldi	r25, 0x01	; 1
    1b46:	9f 93       	push	r25
    1b48:	8f 93       	push	r24
    1b4a:	1f 92       	push	r1
    1b4c:	1f 93       	push	r17
    1b4e:	df 93       	push	r29
    1b50:	cf 93       	push	r28
    1b52:	0e 94 33 20 	call	0x4066	; 0x4066 <snprintf>
    1b56:	23 e0       	ldi	r18, 0x03	; 3
    1b58:	31 e0       	ldi	r19, 0x01	; 1
    1b5a:	43 e5       	ldi	r20, 0x53	; 83
    1b5c:	63 e0       	ldi	r22, 0x03	; 3
    1b5e:	ce 01       	movw	r24, r28
    1b60:	1b d9       	rcall	.-3530   	; 0xd98 <gfx_mono_draw_string>
    1b62:	1f 92       	push	r1
    1b64:	1f 92       	push	r1
    1b66:	1f 92       	push	r1
    1b68:	1f 92       	push	r1
    1b6a:	1f 92       	push	r1
    1b6c:	0e e7       	ldi	r16, 0x7E	; 126
    1b6e:	0f 93       	push	r16
    1b70:	1f 92       	push	r1
    1b72:	1f 92       	push	r1
    1b74:	1f 92       	push	r1
    1b76:	80 e2       	ldi	r24, 0x20	; 32
    1b78:	f8 2e       	mov	r15, r24
    1b7a:	ff 92       	push	r15
    1b7c:	87 ef       	ldi	r24, 0xF7	; 247
    1b7e:	91 e0       	ldi	r25, 0x01	; 1
    1b80:	9f 93       	push	r25
    1b82:	8f 93       	push	r24
    1b84:	1f 92       	push	r1
    1b86:	1f 93       	push	r17
    1b88:	df 93       	push	r29
    1b8a:	cf 93       	push	r28
    1b8c:	0e 94 33 20 	call	0x4066	; 0x4066 <snprintf>
    1b90:	23 e0       	ldi	r18, 0x03	; 3
    1b92:	31 e0       	ldi	r19, 0x01	; 1
    1b94:	4c e5       	ldi	r20, 0x5C	; 92
    1b96:	63 e0       	ldi	r22, 0x03	; 3
    1b98:	ce 01       	movw	r24, r28
    1b9a:	fe d8       	rcall	.-3588   	; 0xd98 <gfx_mono_draw_string>
    1b9c:	1f 92       	push	r1
    1b9e:	1f 92       	push	r1
    1ba0:	1f 92       	push	r1
    1ba2:	1f 92       	push	r1
    1ba4:	1f 92       	push	r1
    1ba6:	0f 93       	push	r16
    1ba8:	1f 92       	push	r1
    1baa:	1f 92       	push	r1
    1bac:	1f 92       	push	r1
    1bae:	ff 92       	push	r15
    1bb0:	86 e1       	ldi	r24, 0x16	; 22
    1bb2:	92 e0       	ldi	r25, 0x02	; 2
    1bb4:	9f 93       	push	r25
    1bb6:	8f 93       	push	r24
    1bb8:	1f 92       	push	r1
    1bba:	1f 93       	push	r17
    1bbc:	df 93       	push	r29
    1bbe:	cf 93       	push	r28
    1bc0:	0e 94 33 20 	call	0x4066	; 0x4066 <snprintf>
    1bc4:	8d b7       	in	r24, 0x3d	; 61
    1bc6:	9e b7       	in	r25, 0x3e	; 62
    1bc8:	8a 96       	adiw	r24, 0x2a	; 42
    1bca:	0f b6       	in	r0, 0x3f	; 63
    1bcc:	f8 94       	cli
    1bce:	9e bf       	out	0x3e, r25	; 62
    1bd0:	0f be       	out	0x3f, r0	; 63
    1bd2:	8d bf       	out	0x3d, r24	; 61
    1bd4:	23 e0       	ldi	r18, 0x03	; 3
    1bd6:	31 e0       	ldi	r19, 0x01	; 1
    1bd8:	45 e6       	ldi	r20, 0x65	; 101
    1bda:	63 e0       	ldi	r22, 0x03	; 3
    1bdc:	ce 01       	movw	r24, r28
    1bde:	dc d8       	rcall	.-3656   	; 0xd98 <gfx_mono_draw_string>
    1be0:	1f 92       	push	r1
    1be2:	1f 92       	push	r1
    1be4:	1f 92       	push	r1
    1be6:	1f 92       	push	r1
    1be8:	84 e3       	ldi	r24, 0x34	; 52
    1bea:	92 e0       	ldi	r25, 0x02	; 2
    1bec:	9f 93       	push	r25
    1bee:	8f 93       	push	r24
    1bf0:	1f 92       	push	r1
    1bf2:	1f 93       	push	r17
    1bf4:	df 93       	push	r29
    1bf6:	cf 93       	push	r28
    1bf8:	0e 94 33 20 	call	0x4066	; 0x4066 <snprintf>
    1bfc:	23 e0       	ldi	r18, 0x03	; 3
    1bfe:	31 e0       	ldi	r19, 0x01	; 1
    1c00:	4e e6       	ldi	r20, 0x6E	; 110
    1c02:	63 e0       	ldi	r22, 0x03	; 3
    1c04:	ce 01       	movw	r24, r28
    1c06:	c8 d8       	rcall	.-3696   	; 0xd98 <gfx_mono_draw_string>
    1c08:	1f 92       	push	r1
    1c0a:	0f 93       	push	r16
    1c0c:	1f 92       	push	r1
    1c0e:	1f 92       	push	r1
    1c10:	8a e4       	ldi	r24, 0x4A	; 74
    1c12:	92 e0       	ldi	r25, 0x02	; 2
    1c14:	9f 93       	push	r25
    1c16:	8f 93       	push	r24
    1c18:	1f 92       	push	r1
    1c1a:	1f 93       	push	r17
    1c1c:	df 93       	push	r29
    1c1e:	cf 93       	push	r28
    1c20:	0e 94 33 20 	call	0x4066	; 0x4066 <snprintf>
    1c24:	23 e0       	ldi	r18, 0x03	; 3
    1c26:	31 e0       	ldi	r19, 0x01	; 1
    1c28:	4e e6       	ldi	r20, 0x6E	; 110
    1c2a:	6f e9       	ldi	r22, 0x9F	; 159
    1c2c:	ce 01       	movw	r24, r28
    1c2e:	b4 d8       	rcall	.-3736   	; 0xd98 <gfx_mono_draw_string>
    1c30:	8d b7       	in	r24, 0x3d	; 61
    1c32:	9e b7       	in	r25, 0x3e	; 62
    1c34:	44 96       	adiw	r24, 0x14	; 20
    1c36:	0f b6       	in	r0, 0x3f	; 63
    1c38:	f8 94       	cli
    1c3a:	9e bf       	out	0x3e, r25	; 62
    1c3c:	0f be       	out	0x3f, r0	; 63
    1c3e:	8d bf       	out	0x3d, r24	; 61
    1c40:	23 e0       	ldi	r18, 0x03	; 3
    1c42:	31 e0       	ldi	r19, 0x01	; 1
    1c44:	47 e7       	ldi	r20, 0x77	; 119
    1c46:	63 e0       	ldi	r22, 0x03	; 3
    1c48:	89 e5       	ldi	r24, 0x59	; 89
    1c4a:	92 e0       	ldi	r25, 0x02	; 2
    1c4c:	df 91       	pop	r29
    1c4e:	cf 91       	pop	r28
    1c50:	1f 91       	pop	r17
    1c52:	0f 91       	pop	r16
    1c54:	ff 90       	pop	r15
    1c56:	a0 c8       	rjmp	.-3776   	; 0xd98 <gfx_mono_draw_string>

00001c58 <lcd_show_new_smartlcd_data>:
    1c58:	0f 93       	push	r16
    1c5a:	1f 93       	push	r17
    1c5c:	cf 93       	push	r28
    1c5e:	df 93       	push	r29
    1c60:	cd b7       	in	r28, 0x3d	; 61
    1c62:	de b7       	in	r29, 0x3e	; 62
    1c64:	28 97       	sbiw	r28, 0x08	; 8
    1c66:	0f b6       	in	r0, 0x3f	; 63
    1c68:	f8 94       	cli
    1c6a:	de bf       	out	0x3e, r29	; 62
    1c6c:	0f be       	out	0x3f, r0	; 63
    1c6e:	cd bf       	out	0x3d, r28	; 61
    1c70:	f3 dd       	rcall	.-1050   	; 0x1858 <cpu_irq_save>
    1c72:	98 2f       	mov	r25, r24
    1c74:	10 91 2b 04 	lds	r17, 0x042B	; 0x80042b <g_showData+0x2>
    1c78:	12 33       	cpi	r17, 0x32	; 50
    1c7a:	09 f4       	brne	.+2      	; 0x1c7e <lcd_show_new_smartlcd_data+0x26>
    1c7c:	76 c0       	rjmp	.+236    	; 0x1d6a <lcd_show_new_smartlcd_data+0x112>
    1c7e:	d0 f4       	brcc	.+52     	; 0x1cb4 <lcd_show_new_smartlcd_data+0x5c>
    1c80:	14 31       	cpi	r17, 0x14	; 20
    1c82:	09 f4       	brne	.+2      	; 0x1c86 <lcd_show_new_smartlcd_data+0x2e>
    1c84:	43 c0       	rjmp	.+134    	; 0x1d0c <lcd_show_new_smartlcd_data+0xb4>
    1c86:	40 f4       	brcc	.+16     	; 0x1c98 <lcd_show_new_smartlcd_data+0x40>
    1c88:	10 31       	cpi	r17, 0x10	; 16
    1c8a:	09 f0       	breq	.+2      	; 0x1c8e <lcd_show_new_smartlcd_data+0x36>
    1c8c:	9d c0       	rjmp	.+314    	; 0x1dc8 <lcd_show_new_smartlcd_data+0x170>
    1c8e:	10 92 2b 04 	sts	0x042B, r1	; 0x80042b <g_showData+0x2>
    1c92:	8f bf       	out	0x3f, r24	; 63
    1c94:	80 de       	rcall	.-768    	; 0x1996 <lcd_cls>
    1c96:	9a c0       	rjmp	.+308    	; 0x1dcc <lcd_show_new_smartlcd_data+0x174>
    1c98:	10 32       	cpi	r17, 0x20	; 32
    1c9a:	09 f4       	brne	.+2      	; 0x1c9e <lcd_show_new_smartlcd_data+0x46>
    1c9c:	3f c0       	rjmp	.+126    	; 0x1d1c <lcd_show_new_smartlcd_data+0xc4>
    1c9e:	10 33       	cpi	r17, 0x30	; 48
    1ca0:	09 f0       	breq	.+2      	; 0x1ca4 <lcd_show_new_smartlcd_data+0x4c>
    1ca2:	92 c0       	rjmp	.+292    	; 0x1dc8 <lcd_show_new_smartlcd_data+0x170>
    1ca4:	80 91 2c 04 	lds	r24, 0x042C	; 0x80042c <g_showData+0x3>
    1ca8:	2d e2       	ldi	r18, 0x2D	; 45
    1caa:	34 e0       	ldi	r19, 0x04	; 4
    1cac:	fe 01       	movw	r30, r28
    1cae:	31 96       	adiw	r30, 0x01	; 1
    1cb0:	bf 01       	movw	r22, r30
    1cb2:	40 c0       	rjmp	.+128    	; 0x1d34 <lcd_show_new_smartlcd_data+0xdc>
    1cb4:	16 33       	cpi	r17, 0x36	; 54
    1cb6:	09 f4       	brne	.+2      	; 0x1cba <lcd_show_new_smartlcd_data+0x62>
    1cb8:	68 c0       	rjmp	.+208    	; 0x1d8a <lcd_show_new_smartlcd_data+0x132>
    1cba:	98 f4       	brcc	.+38     	; 0x1ce2 <lcd_show_new_smartlcd_data+0x8a>
    1cbc:	14 33       	cpi	r17, 0x34	; 52
    1cbe:	09 f0       	breq	.+2      	; 0x1cc2 <lcd_show_new_smartlcd_data+0x6a>
    1cc0:	83 c0       	rjmp	.+262    	; 0x1dc8 <lcd_show_new_smartlcd_data+0x170>
    1cc2:	10 92 2b 04 	sts	0x042B, r1	; 0x80042b <g_showData+0x2>
    1cc6:	80 91 33 04 	lds	r24, 0x0433	; 0x800433 <g_showData+0xa>
    1cca:	60 91 34 04 	lds	r22, 0x0434	; 0x800434 <g_showData+0xb>
    1cce:	40 91 2c 04 	lds	r20, 0x042C	; 0x80042c <g_showData+0x3>
    1cd2:	20 91 2d 04 	lds	r18, 0x042D	; 0x80042d <g_showData+0x4>
    1cd6:	00 91 32 04 	lds	r16, 0x0432	; 0x800432 <g_showData+0x9>
    1cda:	9f bf       	out	0x3f, r25	; 63
    1cdc:	0e 94 62 04 	call	0x8c4	; 0x8c4 <gfx_mono_generic_draw_rect>
    1ce0:	75 c0       	rjmp	.+234    	; 0x1dcc <lcd_show_new_smartlcd_data+0x174>
    1ce2:	18 33       	cpi	r17, 0x38	; 56
    1ce4:	09 f4       	brne	.+2      	; 0x1ce8 <lcd_show_new_smartlcd_data+0x90>
    1ce6:	61 c0       	rjmp	.+194    	; 0x1daa <lcd_show_new_smartlcd_data+0x152>
    1ce8:	1a 33       	cpi	r17, 0x3A	; 58
    1cea:	09 f0       	breq	.+2      	; 0x1cee <lcd_show_new_smartlcd_data+0x96>
    1cec:	6d c0       	rjmp	.+218    	; 0x1dc8 <lcd_show_new_smartlcd_data+0x170>
    1cee:	10 92 2b 04 	sts	0x042B, r1	; 0x80042b <g_showData+0x2>
    1cf2:	80 91 33 04 	lds	r24, 0x0433	; 0x800433 <g_showData+0xa>
    1cf6:	60 91 34 04 	lds	r22, 0x0434	; 0x800434 <g_showData+0xb>
    1cfa:	40 91 2c 04 	lds	r20, 0x042C	; 0x80042c <g_showData+0x3>
    1cfe:	20 91 32 04 	lds	r18, 0x0432	; 0x800432 <g_showData+0x9>
    1d02:	9f bf       	out	0x3f, r25	; 63
    1d04:	0f ef       	ldi	r16, 0xFF	; 255
    1d06:	0e 94 4d 05 	call	0xa9a	; 0xa9a <gfx_mono_generic_draw_filled_circle>
    1d0a:	60 c0       	rjmp	.+192    	; 0x1dcc <lcd_show_new_smartlcd_data+0x174>
    1d0c:	10 92 2b 04 	sts	0x042B, r1	; 0x80042b <g_showData+0x2>
    1d10:	80 91 2c 04 	lds	r24, 0x042C	; 0x80042c <g_showData+0x3>
    1d14:	80 93 32 04 	sts	0x0432, r24	; 0x800432 <g_showData+0x9>
    1d18:	9f bf       	out	0x3f, r25	; 63
    1d1a:	58 c0       	rjmp	.+176    	; 0x1dcc <lcd_show_new_smartlcd_data+0x174>
    1d1c:	10 92 2b 04 	sts	0x042B, r1	; 0x80042b <g_showData+0x2>
    1d20:	80 91 2c 04 	lds	r24, 0x042C	; 0x80042c <g_showData+0x3>
    1d24:	80 93 33 04 	sts	0x0433, r24	; 0x800433 <g_showData+0xa>
    1d28:	80 91 2d 04 	lds	r24, 0x042D	; 0x80042d <g_showData+0x4>
    1d2c:	80 93 34 04 	sts	0x0434, r24	; 0x800434 <g_showData+0xb>
    1d30:	9f bf       	out	0x3f, r25	; 63
    1d32:	4c c0       	rjmp	.+152    	; 0x1dcc <lcd_show_new_smartlcd_data+0x174>
    1d34:	46 2f       	mov	r20, r22
    1d36:	4e 1b       	sub	r20, r30
    1d38:	48 17       	cp	r20, r24
    1d3a:	38 f4       	brcc	.+14     	; 0x1d4a <lcd_show_new_smartlcd_data+0xf2>
    1d3c:	d9 01       	movw	r26, r18
    1d3e:	4d 91       	ld	r20, X+
    1d40:	9d 01       	movw	r18, r26
    1d42:	db 01       	movw	r26, r22
    1d44:	4d 93       	st	X+, r20
    1d46:	bd 01       	movw	r22, r26
    1d48:	f5 cf       	rjmp	.-22     	; 0x1d34 <lcd_show_new_smartlcd_data+0xdc>
    1d4a:	df 01       	movw	r26, r30
    1d4c:	a8 0f       	add	r26, r24
    1d4e:	b1 1d       	adc	r27, r1
    1d50:	1c 92       	st	X, r1
    1d52:	10 92 2b 04 	sts	0x042B, r1	; 0x80042b <g_showData+0x2>
    1d56:	60 91 33 04 	lds	r22, 0x0433	; 0x800433 <g_showData+0xa>
    1d5a:	40 91 34 04 	lds	r20, 0x0434	; 0x800434 <g_showData+0xb>
    1d5e:	9f bf       	out	0x3f, r25	; 63
    1d60:	23 e0       	ldi	r18, 0x03	; 3
    1d62:	31 e0       	ldi	r19, 0x01	; 1
    1d64:	cf 01       	movw	r24, r30
    1d66:	18 d8       	rcall	.-4048   	; 0xd98 <gfx_mono_draw_string>
    1d68:	31 c0       	rjmp	.+98     	; 0x1dcc <lcd_show_new_smartlcd_data+0x174>
    1d6a:	10 92 2b 04 	sts	0x042B, r1	; 0x80042b <g_showData+0x2>
    1d6e:	80 91 33 04 	lds	r24, 0x0433	; 0x800433 <g_showData+0xa>
    1d72:	60 91 34 04 	lds	r22, 0x0434	; 0x800434 <g_showData+0xb>
    1d76:	40 91 2c 04 	lds	r20, 0x042C	; 0x80042c <g_showData+0x3>
    1d7a:	20 91 2d 04 	lds	r18, 0x042D	; 0x80042d <g_showData+0x4>
    1d7e:	00 91 32 04 	lds	r16, 0x0432	; 0x800432 <g_showData+0x9>
    1d82:	9f bf       	out	0x3f, r25	; 63
    1d84:	0e 94 f3 03 	call	0x7e6	; 0x7e6 <gfx_mono_generic_draw_line>
    1d88:	21 c0       	rjmp	.+66     	; 0x1dcc <lcd_show_new_smartlcd_data+0x174>
    1d8a:	10 92 2b 04 	sts	0x042B, r1	; 0x80042b <g_showData+0x2>
    1d8e:	80 91 33 04 	lds	r24, 0x0433	; 0x800433 <g_showData+0xa>
    1d92:	60 91 34 04 	lds	r22, 0x0434	; 0x800434 <g_showData+0xb>
    1d96:	40 91 2c 04 	lds	r20, 0x042C	; 0x80042c <g_showData+0x3>
    1d9a:	20 91 2d 04 	lds	r18, 0x042D	; 0x80042d <g_showData+0x4>
    1d9e:	00 91 32 04 	lds	r16, 0x0432	; 0x800432 <g_showData+0x9>
    1da2:	9f bf       	out	0x3f, r25	; 63
    1da4:	0e 94 85 04 	call	0x90a	; 0x90a <gfx_mono_generic_draw_filled_rect>
    1da8:	11 c0       	rjmp	.+34     	; 0x1dcc <lcd_show_new_smartlcd_data+0x174>
    1daa:	10 92 2b 04 	sts	0x042B, r1	; 0x80042b <g_showData+0x2>
    1dae:	80 91 33 04 	lds	r24, 0x0433	; 0x800433 <g_showData+0xa>
    1db2:	60 91 34 04 	lds	r22, 0x0434	; 0x800434 <g_showData+0xb>
    1db6:	40 91 2c 04 	lds	r20, 0x042C	; 0x80042c <g_showData+0x3>
    1dba:	20 91 32 04 	lds	r18, 0x0432	; 0x800432 <g_showData+0x9>
    1dbe:	9f bf       	out	0x3f, r25	; 63
    1dc0:	0f ef       	ldi	r16, 0xFF	; 255
    1dc2:	0e 94 9f 04 	call	0x93e	; 0x93e <gfx_mono_generic_draw_circle>
    1dc6:	02 c0       	rjmp	.+4      	; 0x1dcc <lcd_show_new_smartlcd_data+0x174>
    1dc8:	9f bf       	out	0x3f, r25	; 63
    1dca:	10 e0       	ldi	r17, 0x00	; 0
    1dcc:	81 2f       	mov	r24, r17
    1dce:	28 96       	adiw	r28, 0x08	; 8
    1dd0:	0f b6       	in	r0, 0x3f	; 63
    1dd2:	f8 94       	cli
    1dd4:	de bf       	out	0x3e, r29	; 62
    1dd6:	0f be       	out	0x3f, r0	; 63
    1dd8:	cd bf       	out	0x3d, r28	; 61
    1dda:	df 91       	pop	r29
    1ddc:	cf 91       	pop	r28
    1dde:	1f 91       	pop	r17
    1de0:	0f 91       	pop	r16
    1de2:	08 95       	ret

00001de4 <lcd_show_new_refosc_data>:
    1de4:	3f 92       	push	r3
    1de6:	4f 92       	push	r4
    1de8:	5f 92       	push	r5
    1dea:	6f 92       	push	r6
    1dec:	7f 92       	push	r7
    1dee:	8f 92       	push	r8
    1df0:	9f 92       	push	r9
    1df2:	af 92       	push	r10
    1df4:	bf 92       	push	r11
    1df6:	cf 92       	push	r12
    1df8:	df 92       	push	r13
    1dfa:	ef 92       	push	r14
    1dfc:	ff 92       	push	r15
    1dfe:	0f 93       	push	r16
    1e00:	1f 93       	push	r17
    1e02:	cf 93       	push	r28
    1e04:	df 93       	push	r29
    1e06:	28 dd       	rcall	.-1456   	; 0x1858 <cpu_irq_save>
    1e08:	c8 2f       	mov	r28, r24
    1e0a:	90 91 29 04 	lds	r25, 0x0429	; 0x800429 <g_showData>
    1e0e:	92 ff       	sbrs	r25, 2
    1e10:	2f c0       	rjmp	.+94     	; 0x1e70 <lcd_show_new_refosc_data+0x8c>
    1e12:	9b 7f       	andi	r25, 0xFB	; 251
    1e14:	90 93 29 04 	sts	0x0429, r25	; 0x800429 <g_showData>
    1e18:	80 91 4e 04 	lds	r24, 0x044E	; 0x80044e <g_showData+0x25>
    1e1c:	1f 92       	push	r1
    1e1e:	8f 93       	push	r24
    1e20:	80 91 4d 04 	lds	r24, 0x044D	; 0x80044d <g_showData+0x24>
    1e24:	1f 92       	push	r1
    1e26:	8f 93       	push	r24
    1e28:	80 91 4c 04 	lds	r24, 0x044C	; 0x80044c <g_showData+0x23>
    1e2c:	1f 92       	push	r1
    1e2e:	8f 93       	push	r24
    1e30:	83 e6       	ldi	r24, 0x63	; 99
    1e32:	92 e0       	ldi	r25, 0x02	; 2
    1e34:	9f 93       	push	r25
    1e36:	8f 93       	push	r24
    1e38:	1f 92       	push	r1
    1e3a:	80 e3       	ldi	r24, 0x30	; 48
    1e3c:	8f 93       	push	r24
    1e3e:	8c ed       	ldi	r24, 0xDC	; 220
    1e40:	93 e0       	ldi	r25, 0x03	; 3
    1e42:	9f 93       	push	r25
    1e44:	8f 93       	push	r24
    1e46:	0e 94 33 20 	call	0x4066	; 0x4066 <snprintf>
    1e4a:	cf bf       	out	0x3f, r28	; 63
    1e4c:	23 e0       	ldi	r18, 0x03	; 3
    1e4e:	31 e0       	ldi	r19, 0x01	; 1
    1e50:	4d e1       	ldi	r20, 0x1D	; 29
    1e52:	6f e3       	ldi	r22, 0x3F	; 63
    1e54:	8c ed       	ldi	r24, 0xDC	; 220
    1e56:	93 e0       	ldi	r25, 0x03	; 3
    1e58:	0e 94 cc 06 	call	0xd98	; 0xd98 <gfx_mono_draw_string>
    1e5c:	8d b7       	in	r24, 0x3d	; 61
    1e5e:	9e b7       	in	r25, 0x3e	; 62
    1e60:	0c 96       	adiw	r24, 0x0c	; 12
    1e62:	0f b6       	in	r0, 0x3f	; 63
    1e64:	f8 94       	cli
    1e66:	9e bf       	out	0x3e, r25	; 62
    1e68:	0f be       	out	0x3f, r0	; 63
    1e6a:	8d bf       	out	0x3d, r24	; 61
    1e6c:	8f ef       	ldi	r24, 0xFF	; 255
    1e6e:	00 c4       	rjmp	.+2048   	; 0x2670 <lcd_show_new_refosc_data+0x88c>
    1e70:	91 ff       	sbrs	r25, 1
    1e72:	31 c0       	rjmp	.+98     	; 0x1ed6 <lcd_show_new_refosc_data+0xf2>
    1e74:	9d 7f       	andi	r25, 0xFD	; 253
    1e76:	90 93 29 04 	sts	0x0429, r25	; 0x800429 <g_showData>
    1e7a:	80 91 3a 04 	lds	r24, 0x043A	; 0x80043a <g_showData+0x11>
    1e7e:	8f 93       	push	r24
    1e80:	80 91 39 04 	lds	r24, 0x0439	; 0x800439 <g_showData+0x10>
    1e84:	8f 93       	push	r24
    1e86:	80 91 4a 04 	lds	r24, 0x044A	; 0x80044a <g_showData+0x21>
    1e8a:	1f 92       	push	r1
    1e8c:	8f 93       	push	r24
    1e8e:	80 91 4b 04 	lds	r24, 0x044B	; 0x80044b <g_showData+0x22>
    1e92:	1f 92       	push	r1
    1e94:	8f 93       	push	r24
    1e96:	82 e7       	ldi	r24, 0x72	; 114
    1e98:	92 e0       	ldi	r25, 0x02	; 2
    1e9a:	9f 93       	push	r25
    1e9c:	8f 93       	push	r24
    1e9e:	1f 92       	push	r1
    1ea0:	80 e3       	ldi	r24, 0x30	; 48
    1ea2:	8f 93       	push	r24
    1ea4:	8c ed       	ldi	r24, 0xDC	; 220
    1ea6:	93 e0       	ldi	r25, 0x03	; 3
    1ea8:	9f 93       	push	r25
    1eaa:	8f 93       	push	r24
    1eac:	0e 94 33 20 	call	0x4066	; 0x4066 <snprintf>
    1eb0:	cf bf       	out	0x3f, r28	; 63
    1eb2:	23 e0       	ldi	r18, 0x03	; 3
    1eb4:	31 e0       	ldi	r19, 0x01	; 1
    1eb6:	44 e1       	ldi	r20, 0x14	; 20
    1eb8:	6f e3       	ldi	r22, 0x3F	; 63
    1eba:	8c ed       	ldi	r24, 0xDC	; 220
    1ebc:	93 e0       	ldi	r25, 0x03	; 3
    1ebe:	0e 94 cc 06 	call	0xd98	; 0xd98 <gfx_mono_draw_string>
    1ec2:	8d b7       	in	r24, 0x3d	; 61
    1ec4:	9e b7       	in	r25, 0x3e	; 62
    1ec6:	0c 96       	adiw	r24, 0x0c	; 12
    1ec8:	0f b6       	in	r0, 0x3f	; 63
    1eca:	f8 94       	cli
    1ecc:	9e bf       	out	0x3e, r25	; 62
    1ece:	0f be       	out	0x3f, r0	; 63
    1ed0:	8d bf       	out	0x3d, r24	; 61
    1ed2:	8e ef       	ldi	r24, 0xFE	; 254
    1ed4:	cd c3       	rjmp	.+1946   	; 0x2670 <lcd_show_new_refosc_data+0x88c>
    1ed6:	89 2f       	mov	r24, r25
    1ed8:	81 70       	andi	r24, 0x01	; 1
    1eda:	90 ff       	sbrs	r25, 0
    1edc:	55 c1       	rjmp	.+682    	; 0x2188 <lcd_show_new_refosc_data+0x3a4>
    1ede:	9e 7f       	andi	r25, 0xFE	; 254
    1ee0:	90 93 29 04 	sts	0x0429, r25	; 0x800429 <g_showData>
    1ee4:	cf bf       	out	0x3f, r28	; 63
    1ee6:	c0 91 37 04 	lds	r28, 0x0437	; 0x800437 <g_showData+0xe>
    1eea:	d0 91 38 04 	lds	r29, 0x0438	; 0x800438 <g_showData+0xf>
    1eee:	a0 90 35 04 	lds	r10, 0x0435	; 0x800435 <g_showData+0xc>
    1ef2:	b0 90 36 04 	lds	r11, 0x0436	; 0x800436 <g_showData+0xd>
    1ef6:	90 90 49 04 	lds	r9, 0x0449	; 0x800449 <g_showData+0x20>
    1efa:	c1 35       	cpi	r28, 0x51	; 81
    1efc:	96 e4       	ldi	r25, 0x46	; 70
    1efe:	d9 07       	cpc	r29, r25
    1f00:	9c f4       	brge	.+38     	; 0x1f28 <lcd_show_new_refosc_data+0x144>
    1f02:	c0 3b       	cpi	r28, 0xB0	; 176
    1f04:	89 eb       	ldi	r24, 0xB9	; 185
    1f06:	d8 07       	cpc	r29, r24
    1f08:	2c f0       	brlt	.+10     	; 0x1f14 <lcd_show_new_refosc_data+0x130>
    1f0a:	c5 39       	cpi	r28, 0x95	; 149
    1f0c:	91 e1       	ldi	r25, 0x11	; 17
    1f0e:	d9 07       	cpc	r29, r25
    1f10:	1c f0       	brlt	.+6      	; 0x1f18 <lcd_show_new_refosc_data+0x134>
    1f12:	0f c0       	rjmp	.+30     	; 0x1f32 <lcd_show_new_refosc_data+0x14e>
    1f14:	c0 eb       	ldi	r28, 0xB0	; 176
    1f16:	d9 eb       	ldi	r29, 0xB9	; 185
    1f18:	be 01       	movw	r22, r28
    1f1a:	cc 36       	cpi	r28, 0x6C	; 108
    1f1c:	8e ee       	ldi	r24, 0xEE	; 238
    1f1e:	d8 07       	cpc	r29, r24
    1f20:	54 f4       	brge	.+20     	; 0x1f36 <lcd_show_new_refosc_data+0x152>
    1f22:	6c e6       	ldi	r22, 0x6C	; 108
    1f24:	7e ee       	ldi	r23, 0xEE	; 238
    1f26:	07 c0       	rjmp	.+14     	; 0x1f36 <lcd_show_new_refosc_data+0x152>
    1f28:	c0 e5       	ldi	r28, 0x50	; 80
    1f2a:	d6 e4       	ldi	r29, 0x46	; 70
    1f2c:	60 e5       	ldi	r22, 0x50	; 80
    1f2e:	76 e4       	ldi	r23, 0x46	; 70
    1f30:	02 c0       	rjmp	.+4      	; 0x1f36 <lcd_show_new_refosc_data+0x152>
    1f32:	60 e5       	ldi	r22, 0x50	; 80
    1f34:	76 e4       	ldi	r23, 0x46	; 70
    1f36:	07 2e       	mov	r0, r23
    1f38:	00 0c       	add	r0, r0
    1f3a:	88 0b       	sbc	r24, r24
    1f3c:	99 0b       	sbc	r25, r25
    1f3e:	0e 94 89 1e 	call	0x3d12	; 0x3d12 <__floatsisf>
    1f42:	20 e0       	ldi	r18, 0x00	; 0
    1f44:	30 ea       	ldi	r19, 0xA0	; 160
    1f46:	4c e8       	ldi	r20, 0x8C	; 140
    1f48:	55 e4       	ldi	r21, 0x45	; 69
    1f4a:	0e 94 ee 1d 	call	0x3bdc	; 0x3bdc <__divsf3>
    1f4e:	20 e0       	ldi	r18, 0x00	; 0
    1f50:	30 e0       	ldi	r19, 0x00	; 0
    1f52:	48 e9       	ldi	r20, 0x98	; 152
    1f54:	52 e4       	ldi	r21, 0x42	; 66
    1f56:	0e 94 90 1f 	call	0x3f20	; 0x3f20 <__mulsf3>
    1f5a:	0e 94 56 1e 	call	0x3cac	; 0x3cac <__fixsfsi>
    1f5e:	2b 01       	movw	r4, r22
    1f60:	3c 01       	movw	r6, r24
    1f62:	7b 01       	movw	r14, r22
    1f64:	77 ff       	sbrs	r23, 7
    1f66:	08 c0       	rjmp	.+16     	; 0x1f78 <lcd_show_new_refosc_data+0x194>
    1f68:	36 e9       	ldi	r19, 0x96	; 150
    1f6a:	83 2e       	mov	r8, r19
    1f6c:	86 0e       	add	r8, r22
    1f6e:	cc 24       	eor	r12, r12
    1f70:	dd 24       	eor	r13, r13
    1f72:	c6 1a       	sub	r12, r22
    1f74:	d7 0a       	sbc	r13, r23
    1f76:	03 c0       	rjmp	.+6      	; 0x1f7e <lcd_show_new_refosc_data+0x19a>
    1f78:	6b 01       	movw	r12, r22
    1f7a:	26 e9       	ldi	r18, 0x96	; 150
    1f7c:	82 2e       	mov	r8, r18
    1f7e:	1f 92       	push	r1
    1f80:	9f 92       	push	r9
    1f82:	81 e8       	ldi	r24, 0x81	; 129
    1f84:	92 e0       	ldi	r25, 0x02	; 2
    1f86:	9f 93       	push	r25
    1f88:	8f 93       	push	r24
    1f8a:	1f 92       	push	r1
    1f8c:	90 e3       	ldi	r25, 0x30	; 48
    1f8e:	39 2e       	mov	r3, r25
    1f90:	3f 92       	push	r3
    1f92:	0c ed       	ldi	r16, 0xDC	; 220
    1f94:	13 e0       	ldi	r17, 0x03	; 3
    1f96:	1f 93       	push	r17
    1f98:	0f 93       	push	r16
    1f9a:	0e 94 33 20 	call	0x4066	; 0x4066 <snprintf>
    1f9e:	23 e0       	ldi	r18, 0x03	; 3
    1fa0:	31 e0       	ldi	r19, 0x01	; 1
    1fa2:	4b e0       	ldi	r20, 0x0B	; 11
    1fa4:	6b e4       	ldi	r22, 0x4B	; 75
    1fa6:	c8 01       	movw	r24, r16
    1fa8:	0e 94 cc 06 	call	0xd98	; 0xd98 <gfx_mono_draw_string>
    1fac:	c5 01       	movw	r24, r10
    1fae:	68 ee       	ldi	r22, 0xE8	; 232
    1fb0:	73 e0       	ldi	r23, 0x03	; 3
    1fb2:	0e 94 ff 1f 	call	0x3ffe	; 0x3ffe <__udivmodhi4>
    1fb6:	9f 93       	push	r25
    1fb8:	8f 93       	push	r24
    1fba:	7f 93       	push	r23
    1fbc:	6f 93       	push	r22
    1fbe:	85 e8       	ldi	r24, 0x85	; 133
    1fc0:	92 e0       	ldi	r25, 0x02	; 2
    1fc2:	9f 93       	push	r25
    1fc4:	8f 93       	push	r24
    1fc6:	1f 92       	push	r1
    1fc8:	3f 92       	push	r3
    1fca:	1f 93       	push	r17
    1fcc:	0f 93       	push	r16
    1fce:	0e 94 33 20 	call	0x4066	; 0x4066 <snprintf>
    1fd2:	23 e0       	ldi	r18, 0x03	; 3
    1fd4:	31 e0       	ldi	r19, 0x01	; 1
    1fd6:	48 e3       	ldi	r20, 0x38	; 56
    1fd8:	6d eb       	ldi	r22, 0xBD	; 189
    1fda:	c8 01       	movw	r24, r16
    1fdc:	0e 94 cc 06 	call	0xd98	; 0xd98 <gfx_mono_draw_string>
    1fe0:	ce 01       	movw	r24, r28
    1fe2:	64 e6       	ldi	r22, 0x64	; 100
    1fe4:	70 e0       	ldi	r23, 0x00	; 0
    1fe6:	0e 94 13 20 	call	0x4026	; 0x4026 <__divmodhi4>
    1fea:	7f 93       	push	r23
    1fec:	6f 93       	push	r22
    1fee:	8e e8       	ldi	r24, 0x8E	; 142
    1ff0:	92 e0       	ldi	r25, 0x02	; 2
    1ff2:	9f 93       	push	r25
    1ff4:	8f 93       	push	r24
    1ff6:	1f 92       	push	r1
    1ff8:	3f 92       	push	r3
    1ffa:	1f 93       	push	r17
    1ffc:	0f 93       	push	r16
    1ffe:	0e 94 33 20 	call	0x4066	; 0x4066 <snprintf>
    2002:	23 e0       	ldi	r18, 0x03	; 3
    2004:	31 e0       	ldi	r19, 0x01	; 1
    2006:	4e e6       	ldi	r20, 0x6E	; 110
    2008:	69 ec       	ldi	r22, 0xC9	; 201
    200a:	c8 01       	movw	r24, r16
    200c:	0e 94 cc 06 	call	0xd98	; 0xd98 <gfx_mono_draw_string>
    2010:	8d b7       	in	r24, 0x3d	; 61
    2012:	9e b7       	in	r25, 0x3e	; 62
    2014:	4a 96       	adiw	r24, 0x1a	; 26
    2016:	0f b6       	in	r0, 0x3f	; 63
    2018:	f8 94       	cli
    201a:	9e bf       	out	0x3e, r25	; 62
    201c:	0f be       	out	0x3f, r0	; 63
    201e:	8d bf       	out	0x3d, r24	; 61
    2020:	80 91 56 03 	lds	r24, 0x0356	; 0x800356 <clk_state_old.3316>
    2024:	98 12       	cpse	r9, r24
    2026:	22 c0       	rjmp	.+68     	; 0x206c <lcd_show_new_refosc_data+0x288>
    2028:	c1 14       	cp	r12, r1
    202a:	d1 04       	cpc	r13, r1
    202c:	f9 f0       	breq	.+62     	; 0x206c <lcd_show_new_refosc_data+0x288>
    202e:	44 2d       	mov	r20, r4
    2030:	1e 14       	cp	r1, r14
    2032:	1f 04       	cpc	r1, r15
    2034:	0c f4       	brge	.+2      	; 0x2038 <lcd_show_new_refosc_data+0x254>
    2036:	40 e0       	ldi	r20, 0x00	; 0
    2038:	d4 2d       	mov	r29, r4
    203a:	f7 fc       	sbrc	r15, 7
    203c:	d0 e0       	ldi	r29, 0x00	; 0
    203e:	97 e0       	ldi	r25, 0x07	; 7
    2040:	99 16       	cp	r9, r25
    2042:	09 f4       	brne	.+2      	; 0x2046 <lcd_show_new_refosc_data+0x262>
    2044:	62 c0       	rjmp	.+196    	; 0x210a <lcd_show_new_refosc_data+0x326>
    2046:	99 15       	cp	r25, r9
    2048:	68 f0       	brcs	.+26     	; 0x2064 <lcd_show_new_refosc_data+0x280>
    204a:	8f ef       	ldi	r24, 0xFF	; 255
    204c:	89 0d       	add	r24, r9
    204e:	83 30       	cpi	r24, 0x03	; 3
    2050:	08 f0       	brcs	.+2      	; 0x2054 <lcd_show_new_refosc_data+0x270>
    2052:	96 c0       	rjmp	.+300    	; 0x2180 <lcd_show_new_refosc_data+0x39c>
    2054:	01 e0       	ldi	r16, 0x01	; 1
    2056:	21 e0       	ldi	r18, 0x01	; 1
    2058:	48 e9       	ldi	r20, 0x98	; 152
    205a:	6a e7       	ldi	r22, 0x7A	; 122
    205c:	8a e4       	ldi	r24, 0x4A	; 74
    205e:	0e 94 85 04 	call	0x90a	; 0x90a <gfx_mono_generic_draw_filled_rect>
    2062:	8e c0       	rjmp	.+284    	; 0x2180 <lcd_show_new_refosc_data+0x39c>
    2064:	8f e0       	ldi	r24, 0x0F	; 15
    2066:	98 16       	cp	r9, r24
    2068:	99 f0       	breq	.+38     	; 0x2090 <lcd_show_new_refosc_data+0x2ac>
    206a:	8a c0       	rjmp	.+276    	; 0x2180 <lcd_show_new_refosc_data+0x39c>
    206c:	00 e0       	ldi	r16, 0x00	; 0
    206e:	25 e0       	ldi	r18, 0x05	; 5
    2070:	40 ea       	ldi	r20, 0xA0	; 160
    2072:	68 e7       	ldi	r22, 0x78	; 120
    2074:	86 e4       	ldi	r24, 0x46	; 70
    2076:	0e 94 85 04 	call	0x90a	; 0x90a <gfx_mono_generic_draw_filled_rect>
    207a:	c1 14       	cp	r12, r1
    207c:	d1 04       	cpc	r13, r1
    207e:	b9 f6       	brne	.-82     	; 0x202e <lcd_show_new_refosc_data+0x24a>
    2080:	01 e0       	ldi	r16, 0x01	; 1
    2082:	2c e7       	ldi	r18, 0x7C	; 124
    2084:	46 e9       	ldi	r20, 0x96	; 150
    2086:	68 e7       	ldi	r22, 0x78	; 120
    2088:	86 e9       	ldi	r24, 0x96	; 150
    208a:	0e 94 f3 03 	call	0x7e6	; 0x7e6 <gfx_mono_generic_draw_line>
    208e:	78 c0       	rjmp	.+240    	; 0x2180 <lcd_show_new_refosc_data+0x39c>
    2090:	40 5b       	subi	r20, 0xB0	; 176
    2092:	00 e0       	ldi	r16, 0x00	; 0
    2094:	25 e0       	ldi	r18, 0x05	; 5
    2096:	68 e7       	ldi	r22, 0x78	; 120
    2098:	86 e4       	ldi	r24, 0x46	; 70
    209a:	0e 94 85 04 	call	0x90a	; 0x90a <gfx_mono_generic_draw_filled_rect>
    209e:	f7 fe       	sbrs	r15, 7
    20a0:	0f c0       	rjmp	.+30     	; 0x20c0 <lcd_show_new_refosc_data+0x2dc>
    20a2:	01 e0       	ldi	r16, 0x01	; 1
    20a4:	28 e7       	ldi	r18, 0x78	; 120
    20a6:	48 2d       	mov	r20, r8
    20a8:	6a e7       	ldi	r22, 0x7A	; 122
    20aa:	cc ef       	ldi	r28, 0xFC	; 252
    20ac:	c8 0d       	add	r28, r8
    20ae:	8c 2f       	mov	r24, r28
    20b0:	0e 94 f3 03 	call	0x7e6	; 0x7e6 <gfx_mono_generic_draw_line>
    20b4:	2c e7       	ldi	r18, 0x7C	; 124
    20b6:	48 2d       	mov	r20, r8
    20b8:	6a e7       	ldi	r22, 0x7A	; 122
    20ba:	8c 2f       	mov	r24, r28
    20bc:	0e 94 f3 03 	call	0x7e6	; 0x7e6 <gfx_mono_generic_draw_line>
    20c0:	01 e0       	ldi	r16, 0x01	; 1
    20c2:	25 e0       	ldi	r18, 0x05	; 5
    20c4:	4c 2d       	mov	r20, r12
    20c6:	68 e7       	ldi	r22, 0x78	; 120
    20c8:	88 2d       	mov	r24, r8
    20ca:	0e 94 85 04 	call	0x90a	; 0x90a <gfx_mono_generic_draw_filled_rect>
    20ce:	40 e5       	ldi	r20, 0x50	; 80
    20d0:	4d 1b       	sub	r20, r29
    20d2:	00 e0       	ldi	r16, 0x00	; 0
    20d4:	25 e0       	ldi	r18, 0x05	; 5
    20d6:	68 e7       	ldi	r22, 0x78	; 120
    20d8:	86 e9       	ldi	r24, 0x96	; 150
    20da:	8d 0f       	add	r24, r29
    20dc:	0e 94 85 04 	call	0x90a	; 0x90a <gfx_mono_generic_draw_filled_rect>
    20e0:	1e 14       	cp	r1, r14
    20e2:	1f 04       	cpc	r1, r15
    20e4:	0c f0       	brlt	.+2      	; 0x20e8 <lcd_show_new_refosc_data+0x304>
    20e6:	4c c0       	rjmp	.+152    	; 0x2180 <lcd_show_new_refosc_data+0x39c>
    20e8:	c5 e9       	ldi	r28, 0x95	; 149
    20ea:	cd 0f       	add	r28, r29
    20ec:	d7 56       	subi	r29, 0x67	; 103
    20ee:	01 e0       	ldi	r16, 0x01	; 1
    20f0:	28 e7       	ldi	r18, 0x78	; 120
    20f2:	4c 2f       	mov	r20, r28
    20f4:	6a e7       	ldi	r22, 0x7A	; 122
    20f6:	8d 2f       	mov	r24, r29
    20f8:	0e 94 f3 03 	call	0x7e6	; 0x7e6 <gfx_mono_generic_draw_line>
    20fc:	2c e7       	ldi	r18, 0x7C	; 124
    20fe:	4c 2f       	mov	r20, r28
    2100:	6a e7       	ldi	r22, 0x7A	; 122
    2102:	8d 2f       	mov	r24, r29
    2104:	0e 94 f3 03 	call	0x7e6	; 0x7e6 <gfx_mono_generic_draw_line>
    2108:	3b c0       	rjmp	.+118    	; 0x2180 <lcd_show_new_refosc_data+0x39c>
    210a:	40 5b       	subi	r20, 0xB0	; 176
    210c:	00 e0       	ldi	r16, 0x00	; 0
    210e:	23 e0       	ldi	r18, 0x03	; 3
    2110:	69 e7       	ldi	r22, 0x79	; 121
    2112:	86 e4       	ldi	r24, 0x46	; 70
    2114:	0e 94 85 04 	call	0x90a	; 0x90a <gfx_mono_generic_draw_filled_rect>
    2118:	f7 fe       	sbrs	r15, 7
    211a:	0f c0       	rjmp	.+30     	; 0x213a <lcd_show_new_refosc_data+0x356>
    211c:	01 e0       	ldi	r16, 0x01	; 1
    211e:	29 e7       	ldi	r18, 0x79	; 121
    2120:	48 2d       	mov	r20, r8
    2122:	6a e7       	ldi	r22, 0x7A	; 122
    2124:	cc ef       	ldi	r28, 0xFC	; 252
    2126:	c8 0d       	add	r28, r8
    2128:	8c 2f       	mov	r24, r28
    212a:	0e 94 f3 03 	call	0x7e6	; 0x7e6 <gfx_mono_generic_draw_line>
    212e:	2b e7       	ldi	r18, 0x7B	; 123
    2130:	48 2d       	mov	r20, r8
    2132:	6a e7       	ldi	r22, 0x7A	; 122
    2134:	8c 2f       	mov	r24, r28
    2136:	0e 94 f3 03 	call	0x7e6	; 0x7e6 <gfx_mono_generic_draw_line>
    213a:	01 e0       	ldi	r16, 0x01	; 1
    213c:	23 e0       	ldi	r18, 0x03	; 3
    213e:	4c 2d       	mov	r20, r12
    2140:	69 e7       	ldi	r22, 0x79	; 121
    2142:	88 2d       	mov	r24, r8
    2144:	0e 94 85 04 	call	0x90a	; 0x90a <gfx_mono_generic_draw_filled_rect>
    2148:	40 e5       	ldi	r20, 0x50	; 80
    214a:	4d 1b       	sub	r20, r29
    214c:	00 e0       	ldi	r16, 0x00	; 0
    214e:	23 e0       	ldi	r18, 0x03	; 3
    2150:	69 e7       	ldi	r22, 0x79	; 121
    2152:	86 e9       	ldi	r24, 0x96	; 150
    2154:	8d 0f       	add	r24, r29
    2156:	0e 94 85 04 	call	0x90a	; 0x90a <gfx_mono_generic_draw_filled_rect>
    215a:	1e 14       	cp	r1, r14
    215c:	1f 04       	cpc	r1, r15
    215e:	84 f4       	brge	.+32     	; 0x2180 <lcd_show_new_refosc_data+0x39c>
    2160:	c5 e9       	ldi	r28, 0x95	; 149
    2162:	cd 0f       	add	r28, r29
    2164:	d7 56       	subi	r29, 0x67	; 103
    2166:	01 e0       	ldi	r16, 0x01	; 1
    2168:	29 e7       	ldi	r18, 0x79	; 121
    216a:	4c 2f       	mov	r20, r28
    216c:	6a e7       	ldi	r22, 0x7A	; 122
    216e:	8d 2f       	mov	r24, r29
    2170:	0e 94 f3 03 	call	0x7e6	; 0x7e6 <gfx_mono_generic_draw_line>
    2174:	2b e7       	ldi	r18, 0x7B	; 123
    2176:	4c 2f       	mov	r20, r28
    2178:	6a e7       	ldi	r22, 0x7A	; 122
    217a:	8d 2f       	mov	r24, r29
    217c:	0e 94 f3 03 	call	0x7e6	; 0x7e6 <gfx_mono_generic_draw_line>
    2180:	90 92 56 03 	sts	0x0356, r9	; 0x800356 <clk_state_old.3316>
    2184:	8d ef       	ldi	r24, 0xFD	; 253
    2186:	74 c2       	rjmp	.+1256   	; 0x2670 <lcd_show_new_refosc_data+0x88c>
    2188:	96 ff       	sbrs	r25, 6
    218a:	36 c0       	rjmp	.+108    	; 0x21f8 <lcd_show_new_refosc_data+0x414>
    218c:	20 91 01 01 	lds	r18, 0x0101	; 0x800101 <idx.3359>
    2190:	22 30       	cpi	r18, 0x02	; 2
    2192:	90 f5       	brcc	.+100    	; 0x21f8 <lcd_show_new_refosc_data+0x414>
    2194:	9f 7b       	andi	r25, 0xBF	; 191
    2196:	90 93 29 04 	sts	0x0429, r25	; 0x800429 <g_showData>
    219a:	80 91 54 04 	lds	r24, 0x0454	; 0x800454 <g_showData+0x2b>
    219e:	1f 92       	push	r1
    21a0:	8f 93       	push	r24
    21a2:	80 91 53 04 	lds	r24, 0x0453	; 0x800453 <g_showData+0x2a>
    21a6:	1f 92       	push	r1
    21a8:	8f 93       	push	r24
    21aa:	80 91 52 04 	lds	r24, 0x0452	; 0x800452 <g_showData+0x29>
    21ae:	1f 92       	push	r1
    21b0:	8f 93       	push	r24
    21b2:	84 e9       	ldi	r24, 0x94	; 148
    21b4:	92 e0       	ldi	r25, 0x02	; 2
    21b6:	9f 93       	push	r25
    21b8:	8f 93       	push	r24
    21ba:	1f 92       	push	r1
    21bc:	80 e3       	ldi	r24, 0x30	; 48
    21be:	8f 93       	push	r24
    21c0:	8c ed       	ldi	r24, 0xDC	; 220
    21c2:	93 e0       	ldi	r25, 0x03	; 3
    21c4:	9f 93       	push	r25
    21c6:	8f 93       	push	r24
    21c8:	0e 94 33 20 	call	0x4066	; 0x4066 <snprintf>
    21cc:	cf bf       	out	0x3f, r28	; 63
    21ce:	23 e0       	ldi	r18, 0x03	; 3
    21d0:	31 e0       	ldi	r19, 0x01	; 1
    21d2:	41 e4       	ldi	r20, 0x41	; 65
    21d4:	6d e5       	ldi	r22, 0x5D	; 93
    21d6:	8c ed       	ldi	r24, 0xDC	; 220
    21d8:	93 e0       	ldi	r25, 0x03	; 3
    21da:	0e 94 cc 06 	call	0xd98	; 0xd98 <gfx_mono_draw_string>
    21de:	82 e0       	ldi	r24, 0x02	; 2
    21e0:	80 93 01 01 	sts	0x0101, r24	; 0x800101 <idx.3359>
    21e4:	8d b7       	in	r24, 0x3d	; 61
    21e6:	9e b7       	in	r25, 0x3e	; 62
    21e8:	0c 96       	adiw	r24, 0x0c	; 12
    21ea:	0f b6       	in	r0, 0x3f	; 63
    21ec:	f8 94       	cli
    21ee:	9e bf       	out	0x3e, r25	; 62
    21f0:	0f be       	out	0x3f, r0	; 63
    21f2:	8d bf       	out	0x3d, r24	; 61
    21f4:	81 e0       	ldi	r24, 0x01	; 1
    21f6:	3c c2       	rjmp	.+1144   	; 0x2670 <lcd_show_new_refosc_data+0x88c>
    21f8:	97 ff       	sbrs	r25, 7
    21fa:	47 c0       	rjmp	.+142    	; 0x228a <lcd_show_new_refosc_data+0x4a6>
    21fc:	20 91 01 01 	lds	r18, 0x0101	; 0x800101 <idx.3359>
    2200:	23 30       	cpi	r18, 0x03	; 3
    2202:	08 f0       	brcs	.+2      	; 0x2206 <lcd_show_new_refosc_data+0x422>
    2204:	42 c0       	rjmp	.+132    	; 0x228a <lcd_show_new_refosc_data+0x4a6>
    2206:	80 91 29 04 	lds	r24, 0x0429	; 0x800429 <g_showData>
    220a:	8f 77       	andi	r24, 0x7F	; 127
    220c:	80 93 29 04 	sts	0x0429, r24	; 0x800429 <g_showData>
    2210:	20 91 41 04 	lds	r18, 0x0441	; 0x800441 <g_showData+0x18>
    2214:	30 91 42 04 	lds	r19, 0x0442	; 0x800442 <g_showData+0x19>
    2218:	c9 01       	movw	r24, r18
    221a:	64 e6       	ldi	r22, 0x64	; 100
    221c:	70 e0       	ldi	r23, 0x00	; 0
    221e:	0e 94 ff 1f 	call	0x3ffe	; 0x3ffe <__udivmodhi4>
    2222:	9f 93       	push	r25
    2224:	8f 93       	push	r24
    2226:	b9 01       	movw	r22, r18
    2228:	80 e0       	ldi	r24, 0x00	; 0
    222a:	90 e0       	ldi	r25, 0x00	; 0
    222c:	0e 94 87 1e 	call	0x3d0e	; 0x3d0e <__floatunsisf>
    2230:	20 e0       	ldi	r18, 0x00	; 0
    2232:	30 e0       	ldi	r19, 0x00	; 0
    2234:	48 ec       	ldi	r20, 0xC8	; 200
    2236:	52 e4       	ldi	r21, 0x42	; 66
    2238:	0e 94 ee 1d 	call	0x3bdc	; 0x3bdc <__divsf3>
    223c:	0e 94 56 1e 	call	0x3cac	; 0x3cac <__fixsfsi>
    2240:	7f 93       	push	r23
    2242:	6f 93       	push	r22
    2244:	85 ed       	ldi	r24, 0xD5	; 213
    2246:	91 e0       	ldi	r25, 0x01	; 1
    2248:	9f 93       	push	r25
    224a:	8f 93       	push	r24
    224c:	1f 92       	push	r1
    224e:	80 e3       	ldi	r24, 0x30	; 48
    2250:	8f 93       	push	r24
    2252:	8c ed       	ldi	r24, 0xDC	; 220
    2254:	93 e0       	ldi	r25, 0x03	; 3
    2256:	9f 93       	push	r25
    2258:	8f 93       	push	r24
    225a:	0e 94 33 20 	call	0x4066	; 0x4066 <snprintf>
    225e:	cf bf       	out	0x3f, r28	; 63
    2260:	23 e0       	ldi	r18, 0x03	; 3
    2262:	31 e0       	ldi	r19, 0x01	; 1
    2264:	4a e4       	ldi	r20, 0x4A	; 74
    2266:	6f e3       	ldi	r22, 0x3F	; 63
    2268:	8c ed       	ldi	r24, 0xDC	; 220
    226a:	93 e0       	ldi	r25, 0x03	; 3
    226c:	0e 94 cc 06 	call	0xd98	; 0xd98 <gfx_mono_draw_string>
    2270:	83 e0       	ldi	r24, 0x03	; 3
    2272:	80 93 01 01 	sts	0x0101, r24	; 0x800101 <idx.3359>
    2276:	8d b7       	in	r24, 0x3d	; 61
    2278:	9e b7       	in	r25, 0x3e	; 62
    227a:	0a 96       	adiw	r24, 0x0a	; 10
    227c:	0f b6       	in	r0, 0x3f	; 63
    227e:	f8 94       	cli
    2280:	9e bf       	out	0x3e, r25	; 62
    2282:	0f be       	out	0x3f, r0	; 63
    2284:	8d bf       	out	0x3d, r24	; 61
    2286:	82 e0       	ldi	r24, 0x02	; 2
    2288:	f3 c1       	rjmp	.+998    	; 0x2670 <lcd_show_new_refosc_data+0x88c>
    228a:	20 91 2a 04 	lds	r18, 0x042A	; 0x80042a <g_showData+0x1>
    228e:	20 ff       	sbrs	r18, 0
    2290:	32 c0       	rjmp	.+100    	; 0x22f6 <lcd_show_new_refosc_data+0x512>
    2292:	30 91 01 01 	lds	r19, 0x0101	; 0x800101 <idx.3359>
    2296:	34 30       	cpi	r19, 0x04	; 4
    2298:	70 f5       	brcc	.+92     	; 0x22f6 <lcd_show_new_refosc_data+0x512>
    229a:	2e 7f       	andi	r18, 0xFE	; 254
    229c:	20 93 2a 04 	sts	0x042A, r18	; 0x80042a <g_showData+0x1>
    22a0:	80 91 56 04 	lds	r24, 0x0456	; 0x800456 <g_showData+0x2d>
    22a4:	1f 92       	push	r1
    22a6:	8f 93       	push	r24
    22a8:	80 91 55 04 	lds	r24, 0x0455	; 0x800455 <g_showData+0x2c>
    22ac:	1f 92       	push	r1
    22ae:	8f 93       	push	r24
    22b0:	8c ee       	ldi	r24, 0xEC	; 236
    22b2:	91 e0       	ldi	r25, 0x01	; 1
    22b4:	9f 93       	push	r25
    22b6:	8f 93       	push	r24
    22b8:	1f 92       	push	r1
    22ba:	80 e3       	ldi	r24, 0x30	; 48
    22bc:	8f 93       	push	r24
    22be:	8c ed       	ldi	r24, 0xDC	; 220
    22c0:	93 e0       	ldi	r25, 0x03	; 3
    22c2:	9f 93       	push	r25
    22c4:	8f 93       	push	r24
    22c6:	0e 94 33 20 	call	0x4066	; 0x4066 <snprintf>
    22ca:	cf bf       	out	0x3f, r28	; 63
    22cc:	23 e0       	ldi	r18, 0x03	; 3
    22ce:	31 e0       	ldi	r19, 0x01	; 1
    22d0:	43 e5       	ldi	r20, 0x53	; 83
    22d2:	61 e5       	ldi	r22, 0x51	; 81
    22d4:	8c ed       	ldi	r24, 0xDC	; 220
    22d6:	93 e0       	ldi	r25, 0x03	; 3
    22d8:	0e 94 cc 06 	call	0xd98	; 0xd98 <gfx_mono_draw_string>
    22dc:	84 e0       	ldi	r24, 0x04	; 4
    22de:	80 93 01 01 	sts	0x0101, r24	; 0x800101 <idx.3359>
    22e2:	8d b7       	in	r24, 0x3d	; 61
    22e4:	9e b7       	in	r25, 0x3e	; 62
    22e6:	0a 96       	adiw	r24, 0x0a	; 10
    22e8:	0f b6       	in	r0, 0x3f	; 63
    22ea:	f8 94       	cli
    22ec:	9e bf       	out	0x3e, r25	; 62
    22ee:	0f be       	out	0x3f, r0	; 63
    22f0:	8d bf       	out	0x3d, r24	; 61
    22f2:	83 e0       	ldi	r24, 0x03	; 3
    22f4:	bd c1       	rjmp	.+890    	; 0x2670 <lcd_show_new_refosc_data+0x88c>
    22f6:	21 ff       	sbrs	r18, 1
    22f8:	41 c0       	rjmp	.+130    	; 0x237c <lcd_show_new_refosc_data+0x598>
    22fa:	30 91 01 01 	lds	r19, 0x0101	; 0x800101 <idx.3359>
    22fe:	35 30       	cpi	r19, 0x05	; 5
    2300:	e8 f5       	brcc	.+122    	; 0x237c <lcd_show_new_refosc_data+0x598>
    2302:	80 91 2a 04 	lds	r24, 0x042A	; 0x80042a <g_showData+0x1>
    2306:	8d 7f       	andi	r24, 0xFD	; 253
    2308:	80 93 2a 04 	sts	0x042A, r24	; 0x80042a <g_showData+0x1>
    230c:	80 91 44 04 	lds	r24, 0x0444	; 0x800444 <g_showData+0x1b>
    2310:	8f 93       	push	r24
    2312:	80 91 43 04 	lds	r24, 0x0443	; 0x800443 <g_showData+0x1a>
    2316:	8f 93       	push	r24
    2318:	80 91 59 04 	lds	r24, 0x0459	; 0x800459 <g_showData+0x30>
    231c:	1f 92       	push	r1
    231e:	8f 93       	push	r24
    2320:	1f 92       	push	r1
    2322:	8e e7       	ldi	r24, 0x7E	; 126
    2324:	8f 93       	push	r24
    2326:	80 91 58 04 	lds	r24, 0x0458	; 0x800458 <g_showData+0x2f>
    232a:	1f 92       	push	r1
    232c:	8f 93       	push	r24
    232e:	80 91 57 04 	lds	r24, 0x0457	; 0x800457 <g_showData+0x2e>
    2332:	1f 92       	push	r1
    2334:	8f 93       	push	r24
    2336:	8d ea       	ldi	r24, 0xAD	; 173
    2338:	92 e0       	ldi	r25, 0x02	; 2
    233a:	9f 93       	push	r25
    233c:	8f 93       	push	r24
    233e:	1f 92       	push	r1
    2340:	80 e3       	ldi	r24, 0x30	; 48
    2342:	8f 93       	push	r24
    2344:	8c ed       	ldi	r24, 0xDC	; 220
    2346:	93 e0       	ldi	r25, 0x03	; 3
    2348:	9f 93       	push	r25
    234a:	8f 93       	push	r24
    234c:	0e 94 33 20 	call	0x4066	; 0x4066 <snprintf>
    2350:	cf bf       	out	0x3f, r28	; 63
    2352:	23 e0       	ldi	r18, 0x03	; 3
    2354:	31 e0       	ldi	r19, 0x01	; 1
    2356:	4c e5       	ldi	r20, 0x5C	; 92
    2358:	6f e3       	ldi	r22, 0x3F	; 63
    235a:	8c ed       	ldi	r24, 0xDC	; 220
    235c:	93 e0       	ldi	r25, 0x03	; 3
    235e:	0e 94 cc 06 	call	0xd98	; 0xd98 <gfx_mono_draw_string>
    2362:	85 e0       	ldi	r24, 0x05	; 5
    2364:	80 93 01 01 	sts	0x0101, r24	; 0x800101 <idx.3359>
    2368:	8d b7       	in	r24, 0x3d	; 61
    236a:	9e b7       	in	r25, 0x3e	; 62
    236c:	40 96       	adiw	r24, 0x10	; 16
    236e:	0f b6       	in	r0, 0x3f	; 63
    2370:	f8 94       	cli
    2372:	9e bf       	out	0x3e, r25	; 62
    2374:	0f be       	out	0x3f, r0	; 63
    2376:	8d bf       	out	0x3d, r24	; 61
    2378:	84 e0       	ldi	r24, 0x04	; 4
    237a:	7a c1       	rjmp	.+756    	; 0x2670 <lcd_show_new_refosc_data+0x88c>
    237c:	22 ff       	sbrs	r18, 2
    237e:	41 c0       	rjmp	.+130    	; 0x2402 <lcd_show_new_refosc_data+0x61e>
    2380:	30 91 01 01 	lds	r19, 0x0101	; 0x800101 <idx.3359>
    2384:	36 30       	cpi	r19, 0x06	; 6
    2386:	e8 f5       	brcc	.+122    	; 0x2402 <lcd_show_new_refosc_data+0x61e>
    2388:	80 91 2a 04 	lds	r24, 0x042A	; 0x80042a <g_showData+0x1>
    238c:	8b 7f       	andi	r24, 0xFB	; 251
    238e:	80 93 2a 04 	sts	0x042A, r24	; 0x80042a <g_showData+0x1>
    2392:	80 91 46 04 	lds	r24, 0x0446	; 0x800446 <g_showData+0x1d>
    2396:	8f 93       	push	r24
    2398:	80 91 45 04 	lds	r24, 0x0445	; 0x800445 <g_showData+0x1c>
    239c:	8f 93       	push	r24
    239e:	80 91 5c 04 	lds	r24, 0x045C	; 0x80045c <g_showData+0x33>
    23a2:	1f 92       	push	r1
    23a4:	8f 93       	push	r24
    23a6:	1f 92       	push	r1
    23a8:	8e e7       	ldi	r24, 0x7E	; 126
    23aa:	8f 93       	push	r24
    23ac:	80 91 5b 04 	lds	r24, 0x045B	; 0x80045b <g_showData+0x32>
    23b0:	1f 92       	push	r1
    23b2:	8f 93       	push	r24
    23b4:	80 91 5a 04 	lds	r24, 0x045A	; 0x80045a <g_showData+0x31>
    23b8:	1f 92       	push	r1
    23ba:	8f 93       	push	r24
    23bc:	81 ec       	ldi	r24, 0xC1	; 193
    23be:	92 e0       	ldi	r25, 0x02	; 2
    23c0:	9f 93       	push	r25
    23c2:	8f 93       	push	r24
    23c4:	1f 92       	push	r1
    23c6:	80 e3       	ldi	r24, 0x30	; 48
    23c8:	8f 93       	push	r24
    23ca:	8c ed       	ldi	r24, 0xDC	; 220
    23cc:	93 e0       	ldi	r25, 0x03	; 3
    23ce:	9f 93       	push	r25
    23d0:	8f 93       	push	r24
    23d2:	0e 94 33 20 	call	0x4066	; 0x4066 <snprintf>
    23d6:	cf bf       	out	0x3f, r28	; 63
    23d8:	23 e0       	ldi	r18, 0x03	; 3
    23da:	31 e0       	ldi	r19, 0x01	; 1
    23dc:	45 e6       	ldi	r20, 0x65	; 101
    23de:	6f e3       	ldi	r22, 0x3F	; 63
    23e0:	8c ed       	ldi	r24, 0xDC	; 220
    23e2:	93 e0       	ldi	r25, 0x03	; 3
    23e4:	0e 94 cc 06 	call	0xd98	; 0xd98 <gfx_mono_draw_string>
    23e8:	86 e0       	ldi	r24, 0x06	; 6
    23ea:	80 93 01 01 	sts	0x0101, r24	; 0x800101 <idx.3359>
    23ee:	8d b7       	in	r24, 0x3d	; 61
    23f0:	9e b7       	in	r25, 0x3e	; 62
    23f2:	40 96       	adiw	r24, 0x10	; 16
    23f4:	0f b6       	in	r0, 0x3f	; 63
    23f6:	f8 94       	cli
    23f8:	9e bf       	out	0x3e, r25	; 62
    23fa:	0f be       	out	0x3f, r0	; 63
    23fc:	8d bf       	out	0x3d, r24	; 61
    23fe:	85 e0       	ldi	r24, 0x05	; 5
    2400:	37 c1       	rjmp	.+622    	; 0x2670 <lcd_show_new_refosc_data+0x88c>
    2402:	23 ff       	sbrs	r18, 3
    2404:	36 c0       	rjmp	.+108    	; 0x2472 <lcd_show_new_refosc_data+0x68e>
    2406:	20 91 01 01 	lds	r18, 0x0101	; 0x800101 <idx.3359>
    240a:	27 30       	cpi	r18, 0x07	; 7
    240c:	90 f5       	brcc	.+100    	; 0x2472 <lcd_show_new_refosc_data+0x68e>
    240e:	80 91 2a 04 	lds	r24, 0x042A	; 0x80042a <g_showData+0x1>
    2412:	87 7f       	andi	r24, 0xF7	; 247
    2414:	80 93 2a 04 	sts	0x042A, r24	; 0x80042a <g_showData+0x1>
    2418:	80 91 5d 04 	lds	r24, 0x045D	; 0x80045d <g_showData+0x34>
    241c:	1f 92       	push	r1
    241e:	8f 93       	push	r24
    2420:	80 91 48 04 	lds	r24, 0x0448	; 0x800448 <g_showData+0x1f>
    2424:	8f 93       	push	r24
    2426:	80 91 47 04 	lds	r24, 0x0447	; 0x800447 <g_showData+0x1e>
    242a:	8f 93       	push	r24
    242c:	84 ed       	ldi	r24, 0xD4	; 212
    242e:	92 e0       	ldi	r25, 0x02	; 2
    2430:	9f 93       	push	r25
    2432:	8f 93       	push	r24
    2434:	1f 92       	push	r1
    2436:	80 e3       	ldi	r24, 0x30	; 48
    2438:	8f 93       	push	r24
    243a:	8c ed       	ldi	r24, 0xDC	; 220
    243c:	93 e0       	ldi	r25, 0x03	; 3
    243e:	9f 93       	push	r25
    2440:	8f 93       	push	r24
    2442:	0e 94 33 20 	call	0x4066	; 0x4066 <snprintf>
    2446:	cf bf       	out	0x3f, r28	; 63
    2448:	23 e0       	ldi	r18, 0x03	; 3
    244a:	31 e0       	ldi	r19, 0x01	; 1
    244c:	4e e6       	ldi	r20, 0x6E	; 110
    244e:	6f e3       	ldi	r22, 0x3F	; 63
    2450:	8c ed       	ldi	r24, 0xDC	; 220
    2452:	93 e0       	ldi	r25, 0x03	; 3
    2454:	0e 94 cc 06 	call	0xd98	; 0xd98 <gfx_mono_draw_string>
    2458:	87 e0       	ldi	r24, 0x07	; 7
    245a:	80 93 01 01 	sts	0x0101, r24	; 0x800101 <idx.3359>
    245e:	8d b7       	in	r24, 0x3d	; 61
    2460:	9e b7       	in	r25, 0x3e	; 62
    2462:	0a 96       	adiw	r24, 0x0a	; 10
    2464:	0f b6       	in	r0, 0x3f	; 63
    2466:	f8 94       	cli
    2468:	9e bf       	out	0x3e, r25	; 62
    246a:	0f be       	out	0x3f, r0	; 63
    246c:	8d bf       	out	0x3d, r24	; 61
    246e:	86 e0       	ldi	r24, 0x06	; 6
    2470:	ff c0       	rjmp	.+510    	; 0x2670 <lcd_show_new_refosc_data+0x88c>
    2472:	93 ff       	sbrs	r25, 3
    2474:	38 c0       	rjmp	.+112    	; 0x24e6 <lcd_show_new_refosc_data+0x702>
    2476:	20 91 01 01 	lds	r18, 0x0101	; 0x800101 <idx.3359>
    247a:	28 30       	cpi	r18, 0x08	; 8
    247c:	a0 f5       	brcc	.+104    	; 0x24e6 <lcd_show_new_refosc_data+0x702>
    247e:	80 91 29 04 	lds	r24, 0x0429	; 0x800429 <g_showData>
    2482:	87 7f       	andi	r24, 0xF7	; 247
    2484:	80 93 29 04 	sts	0x0429, r24	; 0x800429 <g_showData>
    2488:	80 91 3e 04 	lds	r24, 0x043E	; 0x80043e <g_showData+0x15>
    248c:	8f 93       	push	r24
    248e:	80 91 3d 04 	lds	r24, 0x043D	; 0x80043d <g_showData+0x14>
    2492:	8f 93       	push	r24
    2494:	80 91 3c 04 	lds	r24, 0x043C	; 0x80043c <g_showData+0x13>
    2498:	8f 93       	push	r24
    249a:	80 91 3b 04 	lds	r24, 0x043B	; 0x80043b <g_showData+0x12>
    249e:	8f 93       	push	r24
    24a0:	8d ed       	ldi	r24, 0xDD	; 221
    24a2:	92 e0       	ldi	r25, 0x02	; 2
    24a4:	9f 93       	push	r25
    24a6:	8f 93       	push	r24
    24a8:	1f 92       	push	r1
    24aa:	80 e3       	ldi	r24, 0x30	; 48
    24ac:	8f 93       	push	r24
    24ae:	8c ed       	ldi	r24, 0xDC	; 220
    24b0:	93 e0       	ldi	r25, 0x03	; 3
    24b2:	9f 93       	push	r25
    24b4:	8f 93       	push	r24
    24b6:	0e 94 33 20 	call	0x4066	; 0x4066 <snprintf>
    24ba:	cf bf       	out	0x3f, r28	; 63
    24bc:	23 e0       	ldi	r18, 0x03	; 3
    24be:	31 e0       	ldi	r19, 0x01	; 1
    24c0:	46 e2       	ldi	r20, 0x26	; 38
    24c2:	6f e3       	ldi	r22, 0x3F	; 63
    24c4:	8c ed       	ldi	r24, 0xDC	; 220
    24c6:	93 e0       	ldi	r25, 0x03	; 3
    24c8:	0e 94 cc 06 	call	0xd98	; 0xd98 <gfx_mono_draw_string>
    24cc:	88 e0       	ldi	r24, 0x08	; 8
    24ce:	80 93 01 01 	sts	0x0101, r24	; 0x800101 <idx.3359>
    24d2:	8d b7       	in	r24, 0x3d	; 61
    24d4:	9e b7       	in	r25, 0x3e	; 62
    24d6:	0a 96       	adiw	r24, 0x0a	; 10
    24d8:	0f b6       	in	r0, 0x3f	; 63
    24da:	f8 94       	cli
    24dc:	9e bf       	out	0x3e, r25	; 62
    24de:	0f be       	out	0x3f, r0	; 63
    24e0:	8d bf       	out	0x3d, r24	; 61
    24e2:	87 e0       	ldi	r24, 0x07	; 7
    24e4:	c5 c0       	rjmp	.+394    	; 0x2670 <lcd_show_new_refosc_data+0x88c>
    24e6:	94 ff       	sbrs	r25, 4
    24e8:	87 c0       	rjmp	.+270    	; 0x25f8 <lcd_show_new_refosc_data+0x814>
    24ea:	20 91 01 01 	lds	r18, 0x0101	; 0x800101 <idx.3359>
    24ee:	29 30       	cpi	r18, 0x09	; 9
    24f0:	08 f0       	brcs	.+2      	; 0x24f4 <lcd_show_new_refosc_data+0x710>
    24f2:	82 c0       	rjmp	.+260    	; 0x25f8 <lcd_show_new_refosc_data+0x814>
    24f4:	f0 90 4f 04 	lds	r15, 0x044F	; 0x80044f <g_showData+0x26>
    24f8:	60 91 50 04 	lds	r22, 0x0450	; 0x800450 <g_showData+0x27>
    24fc:	80 91 29 04 	lds	r24, 0x0429	; 0x800429 <g_showData>
    2500:	8f 7e       	andi	r24, 0xEF	; 239
    2502:	80 93 29 04 	sts	0x0429, r24	; 0x800429 <g_showData>
    2506:	cf bf       	out	0x3f, r28	; 63
    2508:	70 e0       	ldi	r23, 0x00	; 0
    250a:	80 e0       	ldi	r24, 0x00	; 0
    250c:	90 e0       	ldi	r25, 0x00	; 0
    250e:	0e 94 89 1e 	call	0x3d12	; 0x3d12 <__floatsisf>
    2512:	2b 01       	movw	r4, r22
    2514:	3c 01       	movw	r6, r24
    2516:	20 e0       	ldi	r18, 0x00	; 0
    2518:	30 e0       	ldi	r19, 0x00	; 0
    251a:	4a e7       	ldi	r20, 0x7A	; 122
    251c:	50 e4       	ldi	r21, 0x40	; 64
    251e:	0e 94 90 1f 	call	0x3f20	; 0x3f20 <__mulsf3>
    2522:	0e 94 56 1e 	call	0x3cac	; 0x3cac <__fixsfsi>
    2526:	7f 93       	push	r23
    2528:	6f 93       	push	r22
    252a:	1f 92       	push	r1
    252c:	ff 92       	push	r15
    252e:	07 ee       	ldi	r16, 0xE7	; 231
    2530:	12 e0       	ldi	r17, 0x02	; 2
    2532:	1f 93       	push	r17
    2534:	0f 93       	push	r16
    2536:	1f 92       	push	r1
    2538:	80 e3       	ldi	r24, 0x30	; 48
    253a:	b8 2e       	mov	r11, r24
    253c:	bf 92       	push	r11
    253e:	cc ed       	ldi	r28, 0xDC	; 220
    2540:	d3 e0       	ldi	r29, 0x03	; 3
    2542:	df 93       	push	r29
    2544:	cf 93       	push	r28
    2546:	0e 94 33 20 	call	0x4066	; 0x4066 <snprintf>
    254a:	23 e0       	ldi	r18, 0x03	; 3
    254c:	31 e0       	ldi	r19, 0x01	; 1
    254e:	4f e2       	ldi	r20, 0x2F	; 47
    2550:	6f e3       	ldi	r22, 0x3F	; 63
    2552:	ce 01       	movw	r24, r28
    2554:	0e 94 cc 06 	call	0xd98	; 0xd98 <gfx_mono_draw_string>
    2558:	6f 2d       	mov	r22, r15
    255a:	70 e0       	ldi	r23, 0x00	; 0
    255c:	80 e0       	ldi	r24, 0x00	; 0
    255e:	90 e0       	ldi	r25, 0x00	; 0
    2560:	0e 94 87 1e 	call	0x3d0e	; 0x3d0e <__floatunsisf>
    2564:	6b 01       	movw	r12, r22
    2566:	7c 01       	movw	r14, r24
    2568:	20 e0       	ldi	r18, 0x00	; 0
    256a:	30 e0       	ldi	r19, 0x00	; 0
    256c:	40 e8       	ldi	r20, 0x80	; 128
    256e:	5b e3       	ldi	r21, 0x3B	; 59
    2570:	c3 01       	movw	r24, r6
    2572:	b2 01       	movw	r22, r4
    2574:	0e 94 90 1f 	call	0x3f20	; 0x3f20 <__mulsf3>
    2578:	a7 01       	movw	r20, r14
    257a:	96 01       	movw	r18, r12
    257c:	0e 94 86 1d 	call	0x3b0c	; 0x3b0c <__addsf3>
    2580:	20 e0       	ldi	r18, 0x00	; 0
    2582:	30 e0       	ldi	r19, 0x00	; 0
    2584:	48 ec       	ldi	r20, 0xC8	; 200
    2586:	5e e3       	ldi	r21, 0x3E	; 62
    2588:	0e 94 90 1f 	call	0x3f20	; 0x3f20 <__mulsf3>
    258c:	6b 01       	movw	r12, r22
    258e:	7c 01       	movw	r14, r24
    2590:	0e 94 c4 1e 	call	0x3d88	; 0x3d88 <floor>
    2594:	9b 01       	movw	r18, r22
    2596:	ac 01       	movw	r20, r24
    2598:	c7 01       	movw	r24, r14
    259a:	b6 01       	movw	r22, r12
    259c:	0e 94 85 1d 	call	0x3b0a	; 0x3b0a <__subsf3>
    25a0:	20 e0       	ldi	r18, 0x00	; 0
    25a2:	30 e0       	ldi	r19, 0x00	; 0
    25a4:	4a e7       	ldi	r20, 0x7A	; 122
    25a6:	54 e4       	ldi	r21, 0x44	; 68
    25a8:	0e 94 90 1f 	call	0x3f20	; 0x3f20 <__mulsf3>
    25ac:	0e 94 56 1e 	call	0x3cac	; 0x3cac <__fixsfsi>
    25b0:	7f 93       	push	r23
    25b2:	6f 93       	push	r22
    25b4:	c7 01       	movw	r24, r14
    25b6:	b6 01       	movw	r22, r12
    25b8:	0e 94 56 1e 	call	0x3cac	; 0x3cac <__fixsfsi>
    25bc:	7f 93       	push	r23
    25be:	6f 93       	push	r22
    25c0:	1f 93       	push	r17
    25c2:	0f 93       	push	r16
    25c4:	1f 92       	push	r1
    25c6:	bf 92       	push	r11
    25c8:	df 93       	push	r29
    25ca:	cf 93       	push	r28
    25cc:	0e 94 33 20 	call	0x4066	; 0x4066 <snprintf>
    25d0:	23 e0       	ldi	r18, 0x03	; 3
    25d2:	31 e0       	ldi	r19, 0x01	; 1
    25d4:	4f e2       	ldi	r20, 0x2F	; 47
    25d6:	6d e8       	ldi	r22, 0x8D	; 141
    25d8:	ce 01       	movw	r24, r28
    25da:	0e 94 cc 06 	call	0xd98	; 0xd98 <gfx_mono_draw_string>
    25de:	89 e0       	ldi	r24, 0x09	; 9
    25e0:	80 93 01 01 	sts	0x0101, r24	; 0x800101 <idx.3359>
    25e4:	8d b7       	in	r24, 0x3d	; 61
    25e6:	9e b7       	in	r25, 0x3e	; 62
    25e8:	44 96       	adiw	r24, 0x14	; 20
    25ea:	0f b6       	in	r0, 0x3f	; 63
    25ec:	f8 94       	cli
    25ee:	9e bf       	out	0x3e, r25	; 62
    25f0:	0f be       	out	0x3f, r0	; 63
    25f2:	8d bf       	out	0x3d, r24	; 61
    25f4:	88 e0       	ldi	r24, 0x08	; 8
    25f6:	3c c0       	rjmp	.+120    	; 0x2670 <lcd_show_new_refosc_data+0x88c>
    25f8:	95 ff       	sbrs	r25, 5
    25fa:	36 c0       	rjmp	.+108    	; 0x2668 <lcd_show_new_refosc_data+0x884>
    25fc:	90 91 01 01 	lds	r25, 0x0101	; 0x800101 <idx.3359>
    2600:	9a 30       	cpi	r25, 0x0A	; 10
    2602:	90 f5       	brcc	.+100    	; 0x2668 <lcd_show_new_refosc_data+0x884>
    2604:	80 91 29 04 	lds	r24, 0x0429	; 0x800429 <g_showData>
    2608:	8f 7d       	andi	r24, 0xDF	; 223
    260a:	80 93 29 04 	sts	0x0429, r24	; 0x800429 <g_showData>
    260e:	80 91 40 04 	lds	r24, 0x0440	; 0x800440 <g_showData+0x17>
    2612:	8f 93       	push	r24
    2614:	80 91 3f 04 	lds	r24, 0x043F	; 0x80043f <g_showData+0x16>
    2618:	8f 93       	push	r24
    261a:	80 91 51 04 	lds	r24, 0x0451	; 0x800451 <g_showData+0x28>
    261e:	1f 92       	push	r1
    2620:	8f 93       	push	r24
    2622:	85 e8       	ldi	r24, 0x85	; 133
    2624:	92 e0       	ldi	r25, 0x02	; 2
    2626:	9f 93       	push	r25
    2628:	8f 93       	push	r24
    262a:	1f 92       	push	r1
    262c:	80 e3       	ldi	r24, 0x30	; 48
    262e:	8f 93       	push	r24
    2630:	8c ed       	ldi	r24, 0xDC	; 220
    2632:	93 e0       	ldi	r25, 0x03	; 3
    2634:	9f 93       	push	r25
    2636:	8f 93       	push	r24
    2638:	0e 94 33 20 	call	0x4066	; 0x4066 <snprintf>
    263c:	cf bf       	out	0x3f, r28	; 63
    263e:	23 e0       	ldi	r18, 0x03	; 3
    2640:	31 e0       	ldi	r19, 0x01	; 1
    2642:	48 e3       	ldi	r20, 0x38	; 56
    2644:	6f e3       	ldi	r22, 0x3F	; 63
    2646:	8c ed       	ldi	r24, 0xDC	; 220
    2648:	93 e0       	ldi	r25, 0x03	; 3
    264a:	0e 94 cc 06 	call	0xd98	; 0xd98 <gfx_mono_draw_string>
    264e:	8a e0       	ldi	r24, 0x0A	; 10
    2650:	80 93 01 01 	sts	0x0101, r24	; 0x800101 <idx.3359>
    2654:	8d b7       	in	r24, 0x3d	; 61
    2656:	9e b7       	in	r25, 0x3e	; 62
    2658:	0a 96       	adiw	r24, 0x0a	; 10
    265a:	0f b6       	in	r0, 0x3f	; 63
    265c:	f8 94       	cli
    265e:	9e bf       	out	0x3e, r25	; 62
    2660:	0f be       	out	0x3f, r0	; 63
    2662:	8d bf       	out	0x3d, r24	; 61
    2664:	89 e0       	ldi	r24, 0x09	; 9
    2666:	04 c0       	rjmp	.+8      	; 0x2670 <lcd_show_new_refosc_data+0x88c>
    2668:	91 e0       	ldi	r25, 0x01	; 1
    266a:	90 93 01 01 	sts	0x0101, r25	; 0x800101 <idx.3359>
    266e:	cf bf       	out	0x3f, r28	; 63
    2670:	df 91       	pop	r29
    2672:	cf 91       	pop	r28
    2674:	1f 91       	pop	r17
    2676:	0f 91       	pop	r16
    2678:	ff 90       	pop	r15
    267a:	ef 90       	pop	r14
    267c:	df 90       	pop	r13
    267e:	cf 90       	pop	r12
    2680:	bf 90       	pop	r11
    2682:	af 90       	pop	r10
    2684:	9f 90       	pop	r9
    2686:	8f 90       	pop	r8
    2688:	7f 90       	pop	r7
    268a:	6f 90       	pop	r6
    268c:	5f 90       	pop	r5
    268e:	4f 90       	pop	r4
    2690:	3f 90       	pop	r3
    2692:	08 95       	ret

00002694 <lcd_animation_prepare>:
    2694:	ef 92       	push	r14
    2696:	ff 92       	push	r15
    2698:	0f 93       	push	r16
    269a:	1f 93       	push	r17
    269c:	cf 93       	push	r28
    269e:	df 93       	push	r29
    26a0:	83 ec       	ldi	r24, 0xC3	; 195
    26a2:	9f ef       	ldi	r25, 0xFF	; 255
    26a4:	90 93 db 03 	sts	0x03DB, r25	; 0x8003db <s_animation_train_origin+0x1>
    26a8:	80 93 da 03 	sts	0x03DA, r24	; 0x8003da <s_animation_train_origin>
    26ac:	81 e0       	ldi	r24, 0x01	; 1
    26ae:	80 93 d9 03 	sts	0x03D9, r24	; 0x8003d9 <s_animation_dx>
    26b2:	20 e0       	ldi	r18, 0x00	; 0
    26b4:	30 e0       	ldi	r19, 0x00	; 0
    26b6:	8b e0       	ldi	r24, 0x0B	; 11
    26b8:	e8 2e       	mov	r14, r24
    26ba:	f1 2c       	mov	r15, r1
    26bc:	c0 e4       	ldi	r28, 0x40	; 64
    26be:	48 ef       	ldi	r20, 0xF8	; 248
    26c0:	d8 ec       	ldi	r29, 0xC8	; 200
    26c2:	18 ed       	ldi	r17, 0xD8	; 216
    26c4:	0f ed       	ldi	r16, 0xDF	; 223
    26c6:	21 15       	cp	r18, r1
    26c8:	31 05       	cpc	r19, r1
    26ca:	19 f4       	brne	.+6      	; 0x26d2 <lcd_animation_prepare+0x3e>
    26cc:	10 92 94 03 	sts	0x0394, r1	; 0x800394 <s_animation_train_left>
    26d0:	43 c0       	rjmp	.+134    	; 0x2758 <lcd_animation_prepare+0xc4>
    26d2:	23 30       	cpi	r18, 0x03	; 3
    26d4:	31 05       	cpc	r19, r1
    26d6:	5c f4       	brge	.+22     	; 0x26ee <lcd_animation_prepare+0x5a>
    26d8:	f9 01       	movw	r30, r18
    26da:	ec 56       	subi	r30, 0x6C	; 108
    26dc:	fc 4f       	sbci	r31, 0xFC	; 252
    26de:	40 83       	st	Z, r20
    26e0:	2f 5f       	subi	r18, 0xFF	; 255
    26e2:	3f 4f       	sbci	r19, 0xFF	; 255
    26e4:	f9 01       	movw	r30, r18
    26e6:	ec 56       	subi	r30, 0x6C	; 108
    26e8:	fc 4f       	sbci	r31, 0xFC	; 252
    26ea:	10 83       	st	Z, r17
    26ec:	35 c0       	rjmp	.+106    	; 0x2758 <lcd_animation_prepare+0xc4>
    26ee:	25 30       	cpi	r18, 0x05	; 5
    26f0:	31 05       	cpc	r19, r1
    26f2:	2c f4       	brge	.+10     	; 0x26fe <lcd_animation_prepare+0x6a>
    26f4:	f9 01       	movw	r30, r18
    26f6:	ec 56       	subi	r30, 0x6C	; 108
    26f8:	fc 4f       	sbci	r31, 0xFC	; 252
    26fa:	00 83       	st	Z, r16
    26fc:	2d c0       	rjmp	.+90     	; 0x2758 <lcd_animation_prepare+0xc4>
    26fe:	2b 30       	cpi	r18, 0x0B	; 11
    2700:	31 05       	cpc	r19, r1
    2702:	2c f4       	brge	.+10     	; 0x270e <lcd_animation_prepare+0x7a>
    2704:	f9 01       	movw	r30, r18
    2706:	ec 56       	subi	r30, 0x6C	; 108
    2708:	fc 4f       	sbci	r31, 0xFC	; 252
    270a:	10 83       	st	Z, r17
    270c:	25 c0       	rjmp	.+74     	; 0x2758 <lcd_animation_prepare+0xc4>
    270e:	20 31       	cpi	r18, 0x10	; 16
    2710:	31 05       	cpc	r19, r1
    2712:	e4 f0       	brlt	.+56     	; 0x274c <lcd_animation_prepare+0xb8>
    2714:	2c 33       	cpi	r18, 0x3C	; 60
    2716:	31 05       	cpc	r19, r1
    2718:	19 f4       	brne	.+6      	; 0x2720 <lcd_animation_prepare+0x8c>
    271a:	10 92 d0 03 	sts	0x03D0, r1	; 0x8003d0 <s_animation_train_left+0x3c>
    271e:	1c c0       	rjmp	.+56     	; 0x2758 <lcd_animation_prepare+0xc4>
    2720:	c9 01       	movw	r24, r18
    2722:	40 97       	sbiw	r24, 0x10	; 16
    2724:	b7 01       	movw	r22, r14
    2726:	0e 94 13 20 	call	0x4026	; 0x4026 <__divmodhi4>
    272a:	f9 01       	movw	r30, r18
    272c:	ec 56       	subi	r30, 0x6C	; 108
    272e:	fc 4f       	sbci	r31, 0xFC	; 252
    2730:	89 2b       	or	r24, r25
    2732:	89 f4       	brne	.+34     	; 0x2756 <lcd_animation_prepare+0xc2>
    2734:	c0 83       	st	Z, r28
    2736:	c1 83       	std	Z+1, r28	; 0x01
    2738:	c2 83       	std	Z+2, r28	; 0x02
    273a:	43 83       	std	Z+3, r20	; 0x03
    273c:	44 83       	std	Z+4, r20	; 0x04
    273e:	d5 83       	std	Z+5, r29	; 0x05
    2740:	46 83       	std	Z+6, r20	; 0x06
    2742:	47 83       	std	Z+7, r20	; 0x07
    2744:	d0 87       	std	Z+8, r29	; 0x08
    2746:	41 87       	std	Z+9, r20	; 0x09
    2748:	26 5f       	subi	r18, 0xF6	; 246
    274a:	3f 4f       	sbci	r19, 0xFF	; 255
    274c:	f9 01       	movw	r30, r18
    274e:	ec 56       	subi	r30, 0x6C	; 108
    2750:	fc 4f       	sbci	r31, 0xFC	; 252
    2752:	40 83       	st	Z, r20
    2754:	01 c0       	rjmp	.+2      	; 0x2758 <lcd_animation_prepare+0xc4>
    2756:	10 82       	st	Z, r1
    2758:	2f 5f       	subi	r18, 0xFF	; 255
    275a:	3f 4f       	sbci	r19, 0xFF	; 255
    275c:	2d 33       	cpi	r18, 0x3D	; 61
    275e:	31 05       	cpc	r19, r1
    2760:	0c f4       	brge	.+2      	; 0x2764 <lcd_animation_prepare+0xd0>
    2762:	b1 cf       	rjmp	.-158    	; 0x26c6 <lcd_animation_prepare+0x32>
    2764:	a4 e9       	ldi	r26, 0x94	; 148
    2766:	b3 e0       	ldi	r27, 0x03	; 3
    2768:	e4 e9       	ldi	r30, 0x94	; 148
    276a:	f3 e0       	ldi	r31, 0x03	; 3
    276c:	8d 91       	ld	r24, X+
    276e:	82 93       	st	-Z, r24
    2770:	83 e0       	ldi	r24, 0x03	; 3
    2772:	e7 35       	cpi	r30, 0x57	; 87
    2774:	f8 07       	cpc	r31, r24
    2776:	d1 f7       	brne	.-12     	; 0x276c <lcd_animation_prepare+0xd8>
    2778:	00 e0       	ldi	r16, 0x00	; 0
    277a:	28 e0       	ldi	r18, 0x08	; 8
    277c:	40 ef       	ldi	r20, 0xF0	; 240
    277e:	68 e7       	ldi	r22, 0x78	; 120
    2780:	80 e0       	ldi	r24, 0x00	; 0
    2782:	0e 94 85 04 	call	0x90a	; 0x90a <gfx_mono_generic_draw_filled_rect>
    2786:	df 91       	pop	r29
    2788:	cf 91       	pop	r28
    278a:	1f 91       	pop	r17
    278c:	0f 91       	pop	r16
    278e:	ff 90       	pop	r15
    2790:	ef 90       	pop	r14
    2792:	08 95       	ret

00002794 <lcd_animation_loop>:
    2794:	2f 92       	push	r2
    2796:	3f 92       	push	r3
    2798:	4f 92       	push	r4
    279a:	5f 92       	push	r5
    279c:	6f 92       	push	r6
    279e:	7f 92       	push	r7
    27a0:	8f 92       	push	r8
    27a2:	9f 92       	push	r9
    27a4:	af 92       	push	r10
    27a6:	bf 92       	push	r11
    27a8:	cf 92       	push	r12
    27aa:	df 92       	push	r13
    27ac:	ef 92       	push	r14
    27ae:	ff 92       	push	r15
    27b0:	0f 93       	push	r16
    27b2:	1f 93       	push	r17
    27b4:	cf 93       	push	r28
    27b6:	df 93       	push	r29
    27b8:	4f d8       	rcall	.-3938   	; 0x1858 <cpu_irq_save>
    27ba:	90 91 5e 04 	lds	r25, 0x045E	; 0x80045e <g_status>
    27be:	91 70       	andi	r25, 0x01	; 1
    27c0:	8f bf       	out	0x3f, r24	; 63
    27c2:	84 e9       	ldi	r24, 0x94	; 148
    27c4:	28 2e       	mov	r2, r24
    27c6:	83 e0       	ldi	r24, 0x03	; 3
    27c8:	38 2e       	mov	r3, r24
    27ca:	2a e0       	ldi	r18, 0x0A	; 10
    27cc:	a2 2e       	mov	r10, r18
    27ce:	b1 2c       	mov	r11, r1
    27d0:	31 e0       	ldi	r19, 0x01	; 1
    27d2:	e3 2e       	mov	r14, r19
    27d4:	33 e0       	ldi	r19, 0x03	; 3
    27d6:	f3 2e       	mov	r15, r19
    27d8:	cc ed       	ldi	r28, 0xDC	; 220
    27da:	d3 e0       	ldi	r29, 0x03	; 3
    27dc:	44 e6       	ldi	r20, 0x64	; 100
    27de:	84 2e       	mov	r8, r20
    27e0:	91 2c       	mov	r9, r1
    27e2:	50 ef       	ldi	r21, 0xF0	; 240
    27e4:	c5 2e       	mov	r12, r21
    27e6:	52 e0       	ldi	r21, 0x02	; 2
    27e8:	d5 2e       	mov	r13, r21
    27ea:	13 e0       	ldi	r17, 0x03	; 3
    27ec:	99 23       	and	r25, r25
    27ee:	09 f4       	brne	.+2      	; 0x27f2 <lcd_animation_loop+0x5e>
    27f0:	91 c1       	rjmp	.+802    	; 0x2b14 <lcd_animation_loop+0x380>
    27f2:	80 91 d9 03 	lds	r24, 0x03D9	; 0x8003d9 <s_animation_dx>
    27f6:	88 23       	and	r24, r24
    27f8:	09 f4       	brne	.+2      	; 0x27fc <lcd_animation_loop+0x68>
    27fa:	8c c1       	rjmp	.+792    	; 0x2b14 <lcd_animation_loop+0x380>
    27fc:	0e d7       	rcall	.+3612   	; 0x361a <get_abs_time>
    27fe:	2b 01       	movw	r4, r22
    2800:	3c 01       	movw	r6, r24
    2802:	20 91 d1 03 	lds	r18, 0x03D1	; 0x8003d1 <s_animation_time_last_train>
    2806:	30 91 d2 03 	lds	r19, 0x03D2	; 0x8003d2 <s_animation_time_last_train+0x1>
    280a:	40 91 d3 03 	lds	r20, 0x03D3	; 0x8003d3 <s_animation_time_last_train+0x2>
    280e:	50 91 d4 03 	lds	r21, 0x03D4	; 0x8003d4 <s_animation_time_last_train+0x3>
    2812:	0e 94 85 1d 	call	0x3b0a	; 0x3b0a <__subsf3>
    2816:	2a e0       	ldi	r18, 0x0A	; 10
    2818:	37 ed       	ldi	r19, 0xD7	; 215
    281a:	43 e2       	ldi	r20, 0x23	; 35
    281c:	5d e3       	ldi	r21, 0x3D	; 61
    281e:	0e 94 8c 1f 	call	0x3f18	; 0x3f18 <__gesf2>
    2822:	87 fd       	sbrc	r24, 7
    2824:	60 c0       	rjmp	.+192    	; 0x28e6 <lcd_animation_loop+0x152>
    2826:	40 92 d1 03 	sts	0x03D1, r4	; 0x8003d1 <s_animation_time_last_train>
    282a:	50 92 d2 03 	sts	0x03D2, r5	; 0x8003d2 <s_animation_time_last_train+0x1>
    282e:	60 92 d3 03 	sts	0x03D3, r6	; 0x8003d3 <s_animation_time_last_train+0x2>
    2832:	70 92 d4 03 	sts	0x03D4, r7	; 0x8003d4 <s_animation_time_last_train+0x3>
    2836:	20 91 d9 03 	lds	r18, 0x03D9	; 0x8003d9 <s_animation_dx>
    283a:	80 91 da 03 	lds	r24, 0x03DA	; 0x8003da <s_animation_train_origin>
    283e:	90 91 db 03 	lds	r25, 0x03DB	; 0x8003db <s_animation_train_origin+0x1>
    2842:	82 0f       	add	r24, r18
    2844:	91 1d       	adc	r25, r1
    2846:	27 fd       	sbrc	r18, 7
    2848:	9a 95       	dec	r25
    284a:	90 93 db 03 	sts	0x03DB, r25	; 0x8003db <s_animation_train_origin+0x1>
    284e:	80 93 da 03 	sts	0x03DA, r24	; 0x8003da <s_animation_train_origin>
    2852:	8a 3b       	cpi	r24, 0xBA	; 186
    2854:	2f ef       	ldi	r18, 0xFF	; 255
    2856:	92 07       	cpc	r25, r18
    2858:	24 f4       	brge	.+8      	; 0x2862 <lcd_animation_loop+0xce>
    285a:	e1 e0       	ldi	r30, 0x01	; 1
    285c:	e0 93 d9 03 	sts	0x03D9, r30	; 0x8003d9 <s_animation_dx>
    2860:	06 c0       	rjmp	.+12     	; 0x286e <lcd_animation_loop+0xda>
    2862:	8a 3f       	cpi	r24, 0xFA	; 250
    2864:	91 05       	cpc	r25, r1
    2866:	1c f0       	brlt	.+6      	; 0x286e <lcd_animation_loop+0xda>
    2868:	ff ef       	ldi	r31, 0xFF	; 255
    286a:	f0 93 d9 03 	sts	0x03D9, r31	; 0x8003d9 <s_animation_dx>
    286e:	20 91 d9 03 	lds	r18, 0x03D9	; 0x8003d9 <s_animation_dx>
    2872:	27 ff       	sbrs	r18, 7
    2874:	1c c0       	rjmp	.+56     	; 0x28ae <lcd_animation_loop+0x11a>
    2876:	80 3f       	cpi	r24, 0xF0	; 240
    2878:	91 05       	cpc	r25, r1
    287a:	40 f4       	brcc	.+16     	; 0x288c <lcd_animation_loop+0xf8>
    287c:	2d e3       	ldi	r18, 0x3D	; 61
    287e:	48 2f       	mov	r20, r24
    2880:	6f e0       	ldi	r22, 0x0F	; 15
    2882:	84 e9       	ldi	r24, 0x94	; 148
    2884:	93 e0       	ldi	r25, 0x03	; 3
    2886:	0e 94 ea 05 	call	0xbd4	; 0xbd4 <gfx_mono_lcd_uc1608_put_page>
    288a:	2d c0       	rjmp	.+90     	; 0x28e6 <lcd_animation_loop+0x152>
    288c:	9c 01       	movw	r18, r24
    288e:	24 5c       	subi	r18, 0xC4	; 196
    2890:	3f 4f       	sbci	r19, 0xFF	; 255
    2892:	2c 33       	cpi	r18, 0x3C	; 60
    2894:	31 05       	cpc	r19, r1
    2896:	38 f5       	brcc	.+78     	; 0x28e6 <lcd_animation_loop+0x152>
    2898:	2d e3       	ldi	r18, 0x3D	; 61
    289a:	28 0f       	add	r18, r24
    289c:	40 e0       	ldi	r20, 0x00	; 0
    289e:	6f e0       	ldi	r22, 0x0F	; 15
    28a0:	f1 01       	movw	r30, r2
    28a2:	e8 1b       	sub	r30, r24
    28a4:	f9 0b       	sbc	r31, r25
    28a6:	cf 01       	movw	r24, r30
    28a8:	0e 94 ea 05 	call	0xbd4	; 0xbd4 <gfx_mono_lcd_uc1608_put_page>
    28ac:	1c c0       	rjmp	.+56     	; 0x28e6 <lcd_animation_loop+0x152>
    28ae:	80 3f       	cpi	r24, 0xF0	; 240
    28b0:	91 05       	cpc	r25, r1
    28b2:	40 f4       	brcc	.+16     	; 0x28c4 <lcd_animation_loop+0x130>
    28b4:	2d e3       	ldi	r18, 0x3D	; 61
    28b6:	48 2f       	mov	r20, r24
    28b8:	6f e0       	ldi	r22, 0x0F	; 15
    28ba:	87 e5       	ldi	r24, 0x57	; 87
    28bc:	93 e0       	ldi	r25, 0x03	; 3
    28be:	0e 94 ea 05 	call	0xbd4	; 0xbd4 <gfx_mono_lcd_uc1608_put_page>
    28c2:	11 c0       	rjmp	.+34     	; 0x28e6 <lcd_animation_loop+0x152>
    28c4:	9c 01       	movw	r18, r24
    28c6:	24 5c       	subi	r18, 0xC4	; 196
    28c8:	3f 4f       	sbci	r19, 0xFF	; 255
    28ca:	2c 33       	cpi	r18, 0x3C	; 60
    28cc:	31 05       	cpc	r19, r1
    28ce:	58 f4       	brcc	.+22     	; 0x28e6 <lcd_animation_loop+0x152>
    28d0:	2d e3       	ldi	r18, 0x3D	; 61
    28d2:	28 0f       	add	r18, r24
    28d4:	40 e0       	ldi	r20, 0x00	; 0
    28d6:	6f e0       	ldi	r22, 0x0F	; 15
    28d8:	e7 e5       	ldi	r30, 0x57	; 87
    28da:	f3 e0       	ldi	r31, 0x03	; 3
    28dc:	e8 1b       	sub	r30, r24
    28de:	f9 0b       	sbc	r31, r25
    28e0:	cf 01       	movw	r24, r30
    28e2:	0e 94 ea 05 	call	0xbd4	; 0xbd4 <gfx_mono_lcd_uc1608_put_page>
    28e6:	20 91 d5 03 	lds	r18, 0x03D5	; 0x8003d5 <s_animation_time_last_temp>
    28ea:	30 91 d6 03 	lds	r19, 0x03D6	; 0x8003d6 <s_animation_time_last_temp+0x1>
    28ee:	40 91 d7 03 	lds	r20, 0x03D7	; 0x8003d7 <s_animation_time_last_temp+0x2>
    28f2:	50 91 d8 03 	lds	r21, 0x03D8	; 0x8003d8 <s_animation_time_last_temp+0x3>
    28f6:	c3 01       	movw	r24, r6
    28f8:	b2 01       	movw	r22, r4
    28fa:	0e 94 85 1d 	call	0x3b0a	; 0x3b0a <__subsf3>
    28fe:	20 e0       	ldi	r18, 0x00	; 0
    2900:	30 e0       	ldi	r19, 0x00	; 0
    2902:	40 e0       	ldi	r20, 0x00	; 0
    2904:	5f e3       	ldi	r21, 0x3F	; 63
    2906:	0e 94 8c 1f 	call	0x3f18	; 0x3f18 <__gesf2>
    290a:	87 fd       	sbrc	r24, 7
    290c:	c3 c0       	rjmp	.+390    	; 0x2a94 <lcd_animation_loop+0x300>
    290e:	40 92 d5 03 	sts	0x03D5, r4	; 0x8003d5 <s_animation_time_last_temp>
    2912:	50 92 d6 03 	sts	0x03D6, r5	; 0x8003d6 <s_animation_time_last_temp+0x1>
    2916:	60 92 d7 03 	sts	0x03D7, r6	; 0x8003d7 <s_animation_time_last_temp+0x2>
    291a:	70 92 d8 03 	sts	0x03D8, r7	; 0x8003d8 <s_animation_time_last_temp+0x3>
    291e:	e5 d6       	rcall	.+3530   	; 0x36ea <task>
    2920:	0e 94 2c 0c 	call	0x1858	; 0x1858 <cpu_irq_save>
    2924:	40 90 65 04 	lds	r4, 0x0465	; 0x800465 <g_temp>
    2928:	50 90 66 04 	lds	r5, 0x0466	; 0x800466 <g_temp+0x1>
    292c:	60 90 67 04 	lds	r6, 0x0467	; 0x800467 <g_temp+0x2>
    2930:	70 90 68 04 	lds	r7, 0x0468	; 0x800468 <g_temp+0x3>
    2934:	8f bf       	out	0x3f, r24	; 63
    2936:	20 e0       	ldi	r18, 0x00	; 0
    2938:	30 e0       	ldi	r19, 0x00	; 0
    293a:	a9 01       	movw	r20, r18
    293c:	c3 01       	movw	r24, r6
    293e:	b2 01       	movw	r22, r4
    2940:	0e 94 ea 1d 	call	0x3bd4	; 0x3bd4 <__cmpsf2>
    2944:	87 ff       	sbrs	r24, 7
    2946:	03 c0       	rjmp	.+6      	; 0x294e <lcd_animation_loop+0x1ba>
    2948:	41 2c       	mov	r4, r1
    294a:	51 2c       	mov	r5, r1
    294c:	32 01       	movw	r6, r4
    294e:	20 91 52 03 	lds	r18, 0x0352	; 0x800352 <t_last.3380>
    2952:	30 91 53 03 	lds	r19, 0x0353	; 0x800353 <t_last.3380+0x1>
    2956:	40 91 54 03 	lds	r20, 0x0354	; 0x800354 <t_last.3380+0x2>
    295a:	50 91 55 03 	lds	r21, 0x0355	; 0x800355 <t_last.3380+0x3>
    295e:	c3 01       	movw	r24, r6
    2960:	b2 01       	movw	r22, r4
    2962:	0e 94 85 1d 	call	0x3b0a	; 0x3b0a <__subsf3>
    2966:	9f 77       	andi	r25, 0x7F	; 127
    2968:	2a e0       	ldi	r18, 0x0A	; 10
    296a:	37 ed       	ldi	r19, 0xD7	; 215
    296c:	43 e2       	ldi	r20, 0x23	; 35
    296e:	5c e3       	ldi	r21, 0x3C	; 60
    2970:	0e 94 ea 1d 	call	0x3bd4	; 0x3bd4 <__cmpsf2>
    2974:	87 fd       	sbrc	r24, 7
    2976:	37 c0       	rjmp	.+110    	; 0x29e6 <lcd_animation_loop+0x252>
    2978:	40 92 52 03 	sts	0x0352, r4	; 0x800352 <t_last.3380>
    297c:	50 92 53 03 	sts	0x0353, r5	; 0x800353 <t_last.3380+0x1>
    2980:	60 92 54 03 	sts	0x0354, r6	; 0x800354 <t_last.3380+0x2>
    2984:	70 92 55 03 	sts	0x0355, r7	; 0x800355 <t_last.3380+0x3>
    2988:	20 e0       	ldi	r18, 0x00	; 0
    298a:	30 e0       	ldi	r19, 0x00	; 0
    298c:	48 ec       	ldi	r20, 0xC8	; 200
    298e:	52 e4       	ldi	r21, 0x42	; 66
    2990:	c3 01       	movw	r24, r6
    2992:	b2 01       	movw	r22, r4
    2994:	0e 94 90 1f 	call	0x3f20	; 0x3f20 <__mulsf3>
    2998:	0e 94 56 1e 	call	0x3cac	; 0x3cac <__fixsfsi>
    299c:	cb 01       	movw	r24, r22
    299e:	b4 01       	movw	r22, r8
    29a0:	0e 94 13 20 	call	0x4026	; 0x4026 <__divmodhi4>
    29a4:	9f 93       	push	r25
    29a6:	8f 93       	push	r24
    29a8:	c3 01       	movw	r24, r6
    29aa:	b2 01       	movw	r22, r4
    29ac:	0e 94 56 1e 	call	0x3cac	; 0x3cac <__fixsfsi>
    29b0:	7f 93       	push	r23
    29b2:	6f 93       	push	r22
    29b4:	df 92       	push	r13
    29b6:	cf 92       	push	r12
    29b8:	1f 92       	push	r1
    29ba:	f0 e3       	ldi	r31, 0x30	; 48
    29bc:	ff 93       	push	r31
    29be:	df 93       	push	r29
    29c0:	cf 93       	push	r28
    29c2:	0e 94 33 20 	call	0x4066	; 0x4066 <snprintf>
    29c6:	23 e0       	ldi	r18, 0x03	; 3
    29c8:	31 e0       	ldi	r19, 0x01	; 1
    29ca:	49 e6       	ldi	r20, 0x69	; 105
    29cc:	60 ea       	ldi	r22, 0xA0	; 160
    29ce:	8c ed       	ldi	r24, 0xDC	; 220
    29d0:	93 e0       	ldi	r25, 0x03	; 3
    29d2:	0e 94 cc 06 	call	0xd98	; 0xd98 <gfx_mono_draw_string>
    29d6:	ed b7       	in	r30, 0x3d	; 61
    29d8:	fe b7       	in	r31, 0x3e	; 62
    29da:	3a 96       	adiw	r30, 0x0a	; 10
    29dc:	0f b6       	in	r0, 0x3f	; 63
    29de:	f8 94       	cli
    29e0:	fe bf       	out	0x3e, r31	; 62
    29e2:	0f be       	out	0x3f, r0	; 63
    29e4:	ed bf       	out	0x3d, r30	; 61
    29e6:	0e 94 2c 0c 	call	0x1858	; 0x1858 <cpu_irq_save>
    29ea:	40 90 6d 04 	lds	r4, 0x046D	; 0x80046d <g_adc_light>
    29ee:	50 90 6e 04 	lds	r5, 0x046E	; 0x80046e <g_adc_light+0x1>
    29f2:	60 90 6f 04 	lds	r6, 0x046F	; 0x80046f <g_adc_light+0x2>
    29f6:	70 90 70 04 	lds	r7, 0x0470	; 0x800470 <g_adc_light+0x3>
    29fa:	8f bf       	out	0x3f, r24	; 63
    29fc:	20 91 4e 03 	lds	r18, 0x034E	; 0x80034e <l_last.3386>
    2a00:	30 91 4f 03 	lds	r19, 0x034F	; 0x80034f <l_last.3386+0x1>
    2a04:	40 91 50 03 	lds	r20, 0x0350	; 0x800350 <l_last.3386+0x2>
    2a08:	50 91 51 03 	lds	r21, 0x0351	; 0x800351 <l_last.3386+0x3>
    2a0c:	c3 01       	movw	r24, r6
    2a0e:	b2 01       	movw	r22, r4
    2a10:	0e 94 85 1d 	call	0x3b0a	; 0x3b0a <__subsf3>
    2a14:	9f 77       	andi	r25, 0x7F	; 127
    2a16:	2d ec       	ldi	r18, 0xCD	; 205
    2a18:	3c ec       	ldi	r19, 0xCC	; 204
    2a1a:	4c ec       	ldi	r20, 0xCC	; 204
    2a1c:	5d e3       	ldi	r21, 0x3D	; 61
    2a1e:	0e 94 ea 1d 	call	0x3bd4	; 0x3bd4 <__cmpsf2>
    2a22:	87 fd       	sbrc	r24, 7
    2a24:	37 c0       	rjmp	.+110    	; 0x2a94 <lcd_animation_loop+0x300>
    2a26:	40 92 4e 03 	sts	0x034E, r4	; 0x80034e <l_last.3386>
    2a2a:	50 92 4f 03 	sts	0x034F, r5	; 0x80034f <l_last.3386+0x1>
    2a2e:	60 92 50 03 	sts	0x0350, r6	; 0x800350 <l_last.3386+0x2>
    2a32:	70 92 51 03 	sts	0x0351, r7	; 0x800351 <l_last.3386+0x3>
    2a36:	20 e0       	ldi	r18, 0x00	; 0
    2a38:	30 e0       	ldi	r19, 0x00	; 0
    2a3a:	40 e2       	ldi	r20, 0x20	; 32
    2a3c:	51 e4       	ldi	r21, 0x41	; 65
    2a3e:	c3 01       	movw	r24, r6
    2a40:	b2 01       	movw	r22, r4
    2a42:	0e 94 90 1f 	call	0x3f20	; 0x3f20 <__mulsf3>
    2a46:	0e 94 56 1e 	call	0x3cac	; 0x3cac <__fixsfsi>
    2a4a:	cb 01       	movw	r24, r22
    2a4c:	b5 01       	movw	r22, r10
    2a4e:	0e 94 13 20 	call	0x4026	; 0x4026 <__divmodhi4>
    2a52:	9f 93       	push	r25
    2a54:	8f 93       	push	r24
    2a56:	c3 01       	movw	r24, r6
    2a58:	b2 01       	movw	r22, r4
    2a5a:	0e 94 56 1e 	call	0x3cac	; 0x3cac <__fixsfsi>
    2a5e:	7f 93       	push	r23
    2a60:	6f 93       	push	r22
    2a62:	ff 92       	push	r15
    2a64:	ef 92       	push	r14
    2a66:	1f 92       	push	r1
    2a68:	f0 e3       	ldi	r31, 0x30	; 48
    2a6a:	ff 93       	push	r31
    2a6c:	df 93       	push	r29
    2a6e:	cf 93       	push	r28
    2a70:	0e 94 33 20 	call	0x4066	; 0x4066 <snprintf>
    2a74:	23 e0       	ldi	r18, 0x03	; 3
    2a76:	31 e0       	ldi	r19, 0x01	; 1
    2a78:	4f e5       	ldi	r20, 0x5F	; 95
    2a7a:	60 ea       	ldi	r22, 0xA0	; 160
    2a7c:	8c ed       	ldi	r24, 0xDC	; 220
    2a7e:	93 e0       	ldi	r25, 0x03	; 3
    2a80:	0e 94 cc 06 	call	0xd98	; 0xd98 <gfx_mono_draw_string>
    2a84:	ed b7       	in	r30, 0x3d	; 61
    2a86:	fe b7       	in	r31, 0x3e	; 62
    2a88:	3a 96       	adiw	r30, 0x0a	; 10
    2a8a:	0f b6       	in	r0, 0x3f	; 63
    2a8c:	f8 94       	cli
    2a8e:	fe bf       	out	0x3e, r31	; 62
    2a90:	0f be       	out	0x3f, r0	; 63
    2a92:	ed bf       	out	0x3d, r30	; 61
    2a94:	20 91 4c 03 	lds	r18, 0x034C	; 0x80034c <loop.3371>
    2a98:	30 91 4d 03 	lds	r19, 0x034D	; 0x80034d <loop.3371+0x1>
    2a9c:	f9 01       	movw	r30, r18
    2a9e:	31 96       	adiw	r30, 0x01	; 1
    2aa0:	f0 93 4d 03 	sts	0x034D, r31	; 0x80034d <loop.3371+0x1>
    2aa4:	e0 93 4c 03 	sts	0x034C, r30	; 0x80034c <loop.3371>
    2aa8:	80 91 00 01 	lds	r24, 0x0100	; 0x800100 <__data_start>
    2aac:	22 31       	cpi	r18, 0x12	; 18
    2aae:	31 05       	cpc	r19, r1
    2ab0:	6c f4       	brge	.+26     	; 0x2acc <lcd_animation_loop+0x338>
    2ab2:	61 2f       	mov	r22, r17
    2ab4:	0e 94 f3 1f 	call	0x3fe6	; 0x3fe6 <__udivmodqi4>
    2ab8:	2b e1       	ldi	r18, 0x1B	; 27
    2aba:	2e 1b       	sub	r18, r30
    2abc:	6a e0       	ldi	r22, 0x0A	; 10
    2abe:	6e 0f       	add	r22, r30
    2ac0:	09 2f       	mov	r16, r25
    2ac2:	4f ee       	ldi	r20, 0xEF	; 239
    2ac4:	80 e0       	ldi	r24, 0x00	; 0
    2ac6:	0e 94 f3 03 	call	0x7e6	; 0x7e6 <gfx_mono_generic_draw_line>
    2aca:	1d c0       	rjmp	.+58     	; 0x2b06 <lcd_animation_loop+0x372>
    2acc:	e2 30       	cpi	r30, 0x02	; 2
    2ace:	21 e0       	ldi	r18, 0x01	; 1
    2ad0:	f2 07       	cpc	r31, r18
    2ad2:	6c f4       	brge	.+26     	; 0x2aee <lcd_animation_loop+0x35a>
    2ad4:	61 2f       	mov	r22, r17
    2ad6:	0e 94 f3 1f 	call	0x3fe6	; 0x3fe6 <__udivmodqi4>
    2ada:	41 e0       	ldi	r20, 0x01	; 1
    2adc:	4e 1b       	sub	r20, r30
    2ade:	09 2f       	mov	r16, r25
    2ae0:	2a e0       	ldi	r18, 0x0A	; 10
    2ae2:	6b e1       	ldi	r22, 0x1B	; 27
    2ae4:	8e ee       	ldi	r24, 0xEE	; 238
    2ae6:	8e 0f       	add	r24, r30
    2ae8:	0e 94 f3 03 	call	0x7e6	; 0x7e6 <gfx_mono_generic_draw_line>
    2aec:	0c c0       	rjmp	.+24     	; 0x2b06 <lcd_animation_loop+0x372>
    2aee:	10 92 4d 03 	sts	0x034D, r1	; 0x80034d <loop.3371+0x1>
    2af2:	10 92 4c 03 	sts	0x034C, r1	; 0x80034c <loop.3371>
    2af6:	8f 5f       	subi	r24, 0xFF	; 255
    2af8:	83 30       	cpi	r24, 0x03	; 3
    2afa:	18 f4       	brcc	.+6      	; 0x2b02 <lcd_animation_loop+0x36e>
    2afc:	80 93 00 01 	sts	0x0100, r24	; 0x800100 <__data_start>
    2b00:	02 c0       	rjmp	.+4      	; 0x2b06 <lcd_animation_loop+0x372>
    2b02:	10 92 00 01 	sts	0x0100, r1	; 0x800100 <__data_start>
    2b06:	0e 94 2c 0c 	call	0x1858	; 0x1858 <cpu_irq_save>
    2b0a:	90 91 5e 04 	lds	r25, 0x045E	; 0x80045e <g_status>
    2b0e:	91 70       	andi	r25, 0x01	; 1
    2b10:	8f bf       	out	0x3f, r24	; 63
    2b12:	6c ce       	rjmp	.-808    	; 0x27ec <lcd_animation_loop+0x58>
    2b14:	0e 94 2c 0c 	call	0x1858	; 0x1858 <cpu_irq_save>
    2b18:	90 91 5e 04 	lds	r25, 0x045E	; 0x80045e <g_status>
    2b1c:	9e 7f       	andi	r25, 0xFE	; 254
    2b1e:	90 93 5e 04 	sts	0x045E, r25	; 0x80045e <g_status>
    2b22:	8f bf       	out	0x3f, r24	; 63
    2b24:	df 91       	pop	r29
    2b26:	cf 91       	pop	r28
    2b28:	1f 91       	pop	r17
    2b2a:	0f 91       	pop	r16
    2b2c:	ff 90       	pop	r15
    2b2e:	ef 90       	pop	r14
    2b30:	df 90       	pop	r13
    2b32:	cf 90       	pop	r12
    2b34:	bf 90       	pop	r11
    2b36:	af 90       	pop	r10
    2b38:	9f 90       	pop	r9
    2b3a:	8f 90       	pop	r8
    2b3c:	7f 90       	pop	r7
    2b3e:	6f 90       	pop	r6
    2b40:	5f 90       	pop	r5
    2b42:	4f 90       	pop	r4
    2b44:	3f 90       	pop	r3
    2b46:	2f 90       	pop	r2
    2b48:	08 95       	ret

00002b4a <lcd_test>:
    2b4a:	ef 92       	push	r14
    2b4c:	ff 92       	push	r15
    2b4e:	0f 93       	push	r16
    2b50:	1f 93       	push	r17
    2b52:	cf 93       	push	r28
    2b54:	c8 2f       	mov	r28, r24
    2b56:	0e 94 2c 0c 	call	0x1858	; 0x1858 <cpu_irq_save>
    2b5a:	90 91 5e 04 	lds	r25, 0x045E	; 0x80045e <g_status>
    2b5e:	9e 7f       	andi	r25, 0xFE	; 254
    2b60:	9d 7f       	andi	r25, 0xFD	; 253
    2b62:	90 93 5e 04 	sts	0x045E, r25	; 0x80045e <g_status>
    2b66:	8f bf       	out	0x3f, r24	; 63
    2b68:	c0 fd       	sbrc	r28, 0
    2b6a:	03 c0       	rjmp	.+6      	; 0x2b72 <lcd_test+0x28>
    2b6c:	c1 ff       	sbrs	r28, 1
    2b6e:	2a c0       	rjmp	.+84     	; 0x2bc4 <lcd_test+0x7a>
    2b70:	08 c0       	rjmp	.+16     	; 0x2b82 <lcd_test+0x38>
    2b72:	10 e0       	ldi	r17, 0x00	; 0
    2b74:	81 2f       	mov	r24, r17
    2b76:	0e 94 5d 0c 	call	0x18ba	; 0x18ba <lcd_bus_write_ram>
    2b7a:	1f 5f       	subi	r17, 0xFF	; 255
    2b7c:	10 3f       	cpi	r17, 0xF0	; 240
    2b7e:	d1 f7       	brne	.-12     	; 0x2b74 <lcd_test+0x2a>
    2b80:	f5 cf       	rjmp	.-22     	; 0x2b6c <lcd_test+0x22>
    2b82:	82 eb       	ldi	r24, 0xB2	; 178
    2b84:	0e 94 50 0c 	call	0x18a0	; 0x18a0 <lcd_bus_write_cmd>
    2b88:	81 e0       	ldi	r24, 0x01	; 1
    2b8a:	80 93 0c 04 	sts	0x040C, r24	; 0x80040c <s_lcd_ram_read_nonvalid>
    2b8e:	0e 94 c0 0c 	call	0x1980	; 0x1980 <lcd_cr>
    2b92:	00 e0       	ldi	r16, 0x00	; 0
    2b94:	10 e0       	ldi	r17, 0x00	; 0
    2b96:	87 e0       	ldi	r24, 0x07	; 7
    2b98:	e8 2e       	mov	r14, r24
    2b9a:	f1 2c       	mov	r15, r1
    2b9c:	c8 01       	movw	r24, r16
    2b9e:	b7 01       	movw	r22, r14
    2ba0:	0e 94 13 20 	call	0x4026	; 0x4026 <__divmodhi4>
    2ba4:	89 2b       	or	r24, r25
    2ba6:	19 f4       	brne	.+6      	; 0x2bae <lcd_test+0x64>
    2ba8:	80 e0       	ldi	r24, 0x00	; 0
    2baa:	0e 94 5d 0c 	call	0x18ba	; 0x18ba <lcd_bus_write_ram>
    2bae:	f8 01       	movw	r30, r16
    2bb0:	ec 5f       	subi	r30, 0xFC	; 252
    2bb2:	fb 4f       	sbci	r31, 0xFB	; 251
    2bb4:	84 91       	lpm	r24, Z
    2bb6:	0e 94 5d 0c 	call	0x18ba	; 0x18ba <lcd_bus_write_ram>
    2bba:	0f 5f       	subi	r16, 0xFF	; 255
    2bbc:	1f 4f       	sbci	r17, 0xFF	; 255
    2bbe:	00 3f       	cpi	r16, 0xF0	; 240
    2bc0:	11 05       	cpc	r17, r1
    2bc2:	61 f7       	brne	.-40     	; 0x2b9c <lcd_test+0x52>
    2bc4:	c2 ff       	sbrs	r28, 2
    2bc6:	2d c0       	rjmp	.+90     	; 0x2c22 <lcd_test+0xd8>
    2bc8:	41 e0       	ldi	r20, 0x01	; 1
    2bca:	68 e2       	ldi	r22, 0x28	; 40
    2bcc:	84 e0       	ldi	r24, 0x04	; 4
    2bce:	0e 94 57 06 	call	0xcae	; 0xcae <gfx_mono_lcd_uc1608_draw_pixel>
    2bd2:	41 e0       	ldi	r20, 0x01	; 1
    2bd4:	69 e2       	ldi	r22, 0x29	; 41
    2bd6:	85 e0       	ldi	r24, 0x05	; 5
    2bd8:	0e 94 57 06 	call	0xcae	; 0xcae <gfx_mono_lcd_uc1608_draw_pixel>
    2bdc:	41 e0       	ldi	r20, 0x01	; 1
    2bde:	6a e2       	ldi	r22, 0x2A	; 42
    2be0:	86 e0       	ldi	r24, 0x06	; 6
    2be2:	0e 94 57 06 	call	0xcae	; 0xcae <gfx_mono_lcd_uc1608_draw_pixel>
    2be6:	41 e0       	ldi	r20, 0x01	; 1
    2be8:	6b e2       	ldi	r22, 0x2B	; 43
    2bea:	87 e0       	ldi	r24, 0x07	; 7
    2bec:	0e 94 57 06 	call	0xcae	; 0xcae <gfx_mono_lcd_uc1608_draw_pixel>
    2bf0:	41 e0       	ldi	r20, 0x01	; 1
    2bf2:	6c e2       	ldi	r22, 0x2C	; 44
    2bf4:	86 e0       	ldi	r24, 0x06	; 6
    2bf6:	0e 94 57 06 	call	0xcae	; 0xcae <gfx_mono_lcd_uc1608_draw_pixel>
    2bfa:	41 e0       	ldi	r20, 0x01	; 1
    2bfc:	6d e2       	ldi	r22, 0x2D	; 45
    2bfe:	85 e0       	ldi	r24, 0x05	; 5
    2c00:	0e 94 57 06 	call	0xcae	; 0xcae <gfx_mono_lcd_uc1608_draw_pixel>
    2c04:	41 e0       	ldi	r20, 0x01	; 1
    2c06:	6e e2       	ldi	r22, 0x2E	; 46
    2c08:	86 e0       	ldi	r24, 0x06	; 6
    2c0a:	0e 94 57 06 	call	0xcae	; 0xcae <gfx_mono_lcd_uc1608_draw_pixel>
    2c0e:	41 e0       	ldi	r20, 0x01	; 1
    2c10:	6f e2       	ldi	r22, 0x2F	; 47
    2c12:	87 e0       	ldi	r24, 0x07	; 7
    2c14:	0e 94 57 06 	call	0xcae	; 0xcae <gfx_mono_lcd_uc1608_draw_pixel>
    2c18:	41 e0       	ldi	r20, 0x01	; 1
    2c1a:	60 e3       	ldi	r22, 0x30	; 48
    2c1c:	88 e0       	ldi	r24, 0x08	; 8
    2c1e:	0e 94 57 06 	call	0xcae	; 0xcae <gfx_mono_lcd_uc1608_draw_pixel>
    2c22:	c3 ff       	sbrs	r28, 3
    2c24:	07 c0       	rjmp	.+14     	; 0x2c34 <lcd_test+0xea>
    2c26:	01 e0       	ldi	r16, 0x01	; 1
    2c28:	2f e1       	ldi	r18, 0x1F	; 31
    2c2a:	4f ee       	ldi	r20, 0xEF	; 239
    2c2c:	60 e1       	ldi	r22, 0x10	; 16
    2c2e:	80 e0       	ldi	r24, 0x00	; 0
    2c30:	0e 94 f3 03 	call	0x7e6	; 0x7e6 <gfx_mono_generic_draw_line>
    2c34:	c4 ff       	sbrs	r28, 4
    2c36:	0d c0       	rjmp	.+26     	; 0x2c52 <lcd_test+0x108>
    2c38:	01 e0       	ldi	r16, 0x01	; 1
    2c3a:	28 e2       	ldi	r18, 0x28	; 40
    2c3c:	48 e2       	ldi	r20, 0x28	; 40
    2c3e:	60 e3       	ldi	r22, 0x30	; 48
    2c40:	86 e4       	ldi	r24, 0x46	; 70
    2c42:	0e 94 62 04 	call	0x8c4	; 0x8c4 <gfx_mono_generic_draw_rect>
    2c46:	28 e2       	ldi	r18, 0x28	; 40
    2c48:	48 e2       	ldi	r20, 0x28	; 40
    2c4a:	60 e3       	ldi	r22, 0x30	; 48
    2c4c:	8a ea       	ldi	r24, 0xAA	; 170
    2c4e:	0e 94 85 04 	call	0x90a	; 0x90a <gfx_mono_generic_draw_filled_rect>
    2c52:	c5 ff       	sbrs	r28, 5
    2c54:	0d c0       	rjmp	.+26     	; 0x2c70 <lcd_test+0x126>
    2c56:	0f ef       	ldi	r16, 0xFF	; 255
    2c58:	21 e0       	ldi	r18, 0x01	; 1
    2c5a:	4a e0       	ldi	r20, 0x0A	; 10
    2c5c:	60 e5       	ldi	r22, 0x50	; 80
    2c5e:	8a e0       	ldi	r24, 0x0A	; 10
    2c60:	0e 94 9f 04 	call	0x93e	; 0x93e <gfx_mono_generic_draw_circle>
    2c64:	21 e0       	ldi	r18, 0x01	; 1
    2c66:	4a e0       	ldi	r20, 0x0A	; 10
    2c68:	60 e5       	ldi	r22, 0x50	; 80
    2c6a:	88 e2       	ldi	r24, 0x28	; 40
    2c6c:	0e 94 4d 05 	call	0xa9a	; 0xa9a <gfx_mono_generic_draw_filled_circle>
    2c70:	c6 ff       	sbrs	r28, 6
    2c72:	08 c0       	rjmp	.+16     	; 0x2c84 <lcd_test+0x13a>
    2c74:	23 e0       	ldi	r18, 0x03	; 3
    2c76:	31 e0       	ldi	r19, 0x01	; 1
    2c78:	40 e2       	ldi	r20, 0x20	; 32
    2c7a:	66 e4       	ldi	r22, 0x46	; 70
    2c7c:	8f e0       	ldi	r24, 0x0F	; 15
    2c7e:	93 e0       	ldi	r25, 0x03	; 3
    2c80:	0e 94 cc 06 	call	0xd98	; 0xd98 <gfx_mono_draw_string>
    2c84:	c7 ff       	sbrs	r28, 7
    2c86:	0f c0       	rjmp	.+30     	; 0x2ca6 <lcd_test+0x15c>
    2c88:	05 dd       	rcall	.-1526   	; 0x2694 <lcd_animation_prepare>
    2c8a:	0e 94 2c 0c 	call	0x1858	; 0x1858 <cpu_irq_save>
    2c8e:	90 91 5e 04 	lds	r25, 0x045E	; 0x80045e <g_status>
    2c92:	91 60       	ori	r25, 0x01	; 1
    2c94:	90 93 5e 04 	sts	0x045E, r25	; 0x80045e <g_status>
    2c98:	8f bf       	out	0x3f, r24	; 63
    2c9a:	cf 91       	pop	r28
    2c9c:	1f 91       	pop	r17
    2c9e:	0f 91       	pop	r16
    2ca0:	ff 90       	pop	r15
    2ca2:	ef 90       	pop	r14
    2ca4:	77 cd       	rjmp	.-1298   	; 0x2794 <lcd_animation_loop>
    2ca6:	cf 91       	pop	r28
    2ca8:	1f 91       	pop	r17
    2caa:	0f 91       	pop	r16
    2cac:	ff 90       	pop	r15
    2cae:	ef 90       	pop	r14
    2cb0:	08 95       	ret

00002cb2 <isr_smartlcd_cmd>:
    2cb2:	80 93 2b 04 	sts	0x042B, r24	; 0x80042b <g_showData+0x2>
    2cb6:	08 95       	ret

00002cb8 <isr_smartlcd_cmd_data1>:
    2cb8:	e9 e2       	ldi	r30, 0x29	; 41
    2cba:	f4 e0       	ldi	r31, 0x04	; 4
    2cbc:	82 83       	std	Z+2, r24	; 0x02
    2cbe:	63 83       	std	Z+3, r22	; 0x03
    2cc0:	08 95       	ret

00002cc2 <isr_smartlcd_cmd_data2>:
    2cc2:	e9 e2       	ldi	r30, 0x29	; 41
    2cc4:	f4 e0       	ldi	r31, 0x04	; 4
    2cc6:	82 83       	std	Z+2, r24	; 0x02
    2cc8:	63 83       	std	Z+3, r22	; 0x03
    2cca:	44 83       	std	Z+4, r20	; 0x04
    2ccc:	08 95       	ret

00002cce <isr_smartlcd_cmd_data3>:
    2cce:	e9 e2       	ldi	r30, 0x29	; 41
    2cd0:	f4 e0       	ldi	r31, 0x04	; 4
    2cd2:	82 83       	std	Z+2, r24	; 0x02
    2cd4:	63 83       	std	Z+3, r22	; 0x03
    2cd6:	44 83       	std	Z+4, r20	; 0x04
    2cd8:	25 83       	std	Z+5, r18	; 0x05
    2cda:	08 95       	ret

00002cdc <isr_smartlcd_cmd_data4>:
    2cdc:	0f 93       	push	r16
    2cde:	e9 e2       	ldi	r30, 0x29	; 41
    2ce0:	f4 e0       	ldi	r31, 0x04	; 4
    2ce2:	82 83       	std	Z+2, r24	; 0x02
    2ce4:	63 83       	std	Z+3, r22	; 0x03
    2ce6:	44 83       	std	Z+4, r20	; 0x04
    2ce8:	25 83       	std	Z+5, r18	; 0x05
    2cea:	06 83       	std	Z+6, r16	; 0x06
    2cec:	0f 91       	pop	r16
    2cee:	08 95       	ret

00002cf0 <isr_smartlcd_cmd_data5>:
    2cf0:	ef 92       	push	r14
    2cf2:	0f 93       	push	r16
    2cf4:	e9 e2       	ldi	r30, 0x29	; 41
    2cf6:	f4 e0       	ldi	r31, 0x04	; 4
    2cf8:	82 83       	std	Z+2, r24	; 0x02
    2cfa:	63 83       	std	Z+3, r22	; 0x03
    2cfc:	44 83       	std	Z+4, r20	; 0x04
    2cfe:	25 83       	std	Z+5, r18	; 0x05
    2d00:	06 83       	std	Z+6, r16	; 0x06
    2d02:	e7 82       	std	Z+7, r14	; 0x07
    2d04:	0f 91       	pop	r16
    2d06:	ef 90       	pop	r14
    2d08:	08 95       	ret

00002d0a <isr_smartlcd_cmd_data6>:
    2d0a:	cf 92       	push	r12
    2d0c:	ef 92       	push	r14
    2d0e:	0f 93       	push	r16
    2d10:	e9 e2       	ldi	r30, 0x29	; 41
    2d12:	f4 e0       	ldi	r31, 0x04	; 4
    2d14:	82 83       	std	Z+2, r24	; 0x02
    2d16:	63 83       	std	Z+3, r22	; 0x03
    2d18:	44 83       	std	Z+4, r20	; 0x04
    2d1a:	25 83       	std	Z+5, r18	; 0x05
    2d1c:	06 83       	std	Z+6, r16	; 0x06
    2d1e:	e7 82       	std	Z+7, r14	; 0x07
    2d20:	c0 86       	std	Z+8, r12	; 0x08
    2d22:	0f 91       	pop	r16
    2d24:	ef 90       	pop	r14
    2d26:	cf 90       	pop	r12
    2d28:	08 95       	ret

00002d2a <isr_lcd_10mhz_ref_osc_show_clkstate_phaseVolt1000_phaseDeg100>:


void isr_lcd_10mhz_ref_osc_show_clkstate_phaseVolt1000_phaseDeg100(uint8_t clk_state, uint16_t phaseVolt1000, int16_t phaseDeg100)
{
	// interrupt is already disabled, here
	if ((g_showData.clkState_clk_state     != clk_state    )  ||
    2d2a:	90 91 49 04 	lds	r25, 0x0449	; 0x800449 <g_showData+0x20>
    2d2e:	98 13       	cpse	r25, r24
    2d30:	0e c0       	rjmp	.+28     	; 0x2d4e <isr_lcd_10mhz_ref_osc_show_clkstate_phaseVolt1000_phaseDeg100+0x24>
    2d32:	20 91 35 04 	lds	r18, 0x0435	; 0x800435 <g_showData+0xc>
    2d36:	30 91 36 04 	lds	r19, 0x0436	; 0x800436 <g_showData+0xd>
    2d3a:	26 17       	cp	r18, r22
    2d3c:	37 07       	cpc	r19, r23
    2d3e:	39 f4       	brne	.+14     	; 0x2d4e <isr_lcd_10mhz_ref_osc_show_clkstate_phaseVolt1000_phaseDeg100+0x24>
		(g_showData.clkState_phaseVolt1000 != phaseVolt1000)  ||
    2d40:	20 91 37 04 	lds	r18, 0x0437	; 0x800437 <g_showData+0xe>
    2d44:	30 91 38 04 	lds	r19, 0x0438	; 0x800438 <g_showData+0xf>
    2d48:	24 17       	cp	r18, r20
    2d4a:	35 07       	cpc	r19, r21
    2d4c:	79 f0       	breq	.+30     	; 0x2d6c <isr_lcd_10mhz_ref_osc_show_clkstate_phaseVolt1000_phaseDeg100+0x42>
		(g_showData.clkState_phaseDeg100   != phaseDeg100  )) {
		g_showData.newClkState            = true;
    2d4e:	90 91 29 04 	lds	r25, 0x0429	; 0x800429 <g_showData>
    2d52:	91 60       	ori	r25, 0x01	; 1
    2d54:	90 93 29 04 	sts	0x0429, r25	; 0x800429 <g_showData>
		g_showData.clkState_clk_state     = clk_state;
    2d58:	80 93 49 04 	sts	0x0449, r24	; 0x800449 <g_showData+0x20>
		g_showData.clkState_phaseVolt1000 = phaseVolt1000;
    2d5c:	70 93 36 04 	sts	0x0436, r23	; 0x800436 <g_showData+0xd>
    2d60:	60 93 35 04 	sts	0x0435, r22	; 0x800435 <g_showData+0xc>
		g_showData.clkState_phaseDeg100   = phaseDeg100;
    2d64:	50 93 38 04 	sts	0x0438, r21	; 0x800438 <g_showData+0xf>
    2d68:	40 93 37 04 	sts	0x0437, r20	; 0x800437 <g_showData+0xe>
    2d6c:	08 95       	ret

00002d6e <isr_lcd_10mhz_ref_osc_show_date>:
// hold a copy of a font size in the PROG memory section
SYSFONT_DEFINE_GLYPHS;


uint8_t lcd_bus_read_status(void)
{
    2d6e:	20 91 39 04 	lds	r18, 0x0439	; 0x800439 <g_showData+0x10>
    2d72:	30 91 3a 04 	lds	r19, 0x043A	; 0x80043a <g_showData+0x11>
    2d76:	28 17       	cp	r18, r24
    2d78:	39 07       	cpc	r19, r25
    2d7a:	71 f4       	brne	.+28     	; 0x2d98 <isr_lcd_10mhz_ref_osc_show_date+0x2a>
    2d7c:	20 91 4a 04 	lds	r18, 0x044A	; 0x80044a <g_showData+0x21>
    2d80:	30 e0       	ldi	r19, 0x00	; 0
    2d82:	e6 2f       	mov	r30, r22
    2d84:	06 2e       	mov	r0, r22
    2d86:	00 0c       	add	r0, r0
    2d88:	ff 0b       	sbc	r31, r31
    2d8a:	2e 17       	cp	r18, r30
    2d8c:	3f 07       	cpc	r19, r31
    2d8e:	21 f4       	brne	.+8      	; 0x2d98 <isr_lcd_10mhz_ref_osc_show_date+0x2a>
    2d90:	20 91 4b 04 	lds	r18, 0x044B	; 0x80044b <g_showData+0x22>
    2d94:	24 17       	cp	r18, r20
    2d96:	69 f0       	breq	.+26     	; 0x2db2 <isr_lcd_10mhz_ref_osc_show_date+0x44>
    2d98:	20 91 29 04 	lds	r18, 0x0429	; 0x800429 <g_showData>
    2d9c:	22 60       	ori	r18, 0x02	; 2
    2d9e:	20 93 29 04 	sts	0x0429, r18	; 0x800429 <g_showData>
    2da2:	90 93 3a 04 	sts	0x043A, r25	; 0x80043a <g_showData+0x11>
    2da6:	80 93 39 04 	sts	0x0439, r24	; 0x800439 <g_showData+0x10>
    2daa:	60 93 4a 04 	sts	0x044A, r22	; 0x80044a <g_showData+0x21>
    2dae:	40 93 4b 04 	sts	0x044B, r20	; 0x80044b <g_showData+0x22>
    2db2:	08 95       	ret

00002db4 <isr_lcd_10mhz_ref_osc_show_time>:
    2db4:	90 91 4c 04 	lds	r25, 0x044C	; 0x80044c <g_showData+0x23>
    2db8:	98 13       	cpse	r25, r24
    2dba:	0e c0       	rjmp	.+28     	; 0x2dd8 <isr_lcd_10mhz_ref_osc_show_time+0x24>
    2dbc:	20 91 4d 04 	lds	r18, 0x044D	; 0x80044d <g_showData+0x24>
    2dc0:	30 e0       	ldi	r19, 0x00	; 0
    2dc2:	e6 2f       	mov	r30, r22
    2dc4:	06 2e       	mov	r0, r22
    2dc6:	00 0c       	add	r0, r0
    2dc8:	ff 0b       	sbc	r31, r31
    2dca:	2e 17       	cp	r18, r30
    2dcc:	3f 07       	cpc	r19, r31
    2dce:	21 f4       	brne	.+8      	; 0x2dd8 <isr_lcd_10mhz_ref_osc_show_time+0x24>
    2dd0:	90 91 4e 04 	lds	r25, 0x044E	; 0x80044e <g_showData+0x25>
    2dd4:	94 17       	cp	r25, r20
    2dd6:	59 f0       	breq	.+22     	; 0x2dee <isr_lcd_10mhz_ref_osc_show_time+0x3a>
    2dd8:	90 91 29 04 	lds	r25, 0x0429	; 0x800429 <g_showData>
    2ddc:	94 60       	ori	r25, 0x04	; 4
    2dde:	90 93 29 04 	sts	0x0429, r25	; 0x800429 <g_showData>
    2de2:	80 93 4c 04 	sts	0x044C, r24	; 0x80044c <g_showData+0x23>
    2de6:	60 93 4d 04 	sts	0x044D, r22	; 0x80044d <g_showData+0x24>
    2dea:	40 93 4e 04 	sts	0x044E, r20	; 0x80044e <g_showData+0x25>
    2dee:	08 95       	ret

00002df0 <isr_lcd_10mhz_ref_osc_show_ppm>:
    2df0:	20 91 3b 04 	lds	r18, 0x043B	; 0x80043b <g_showData+0x12>
    2df4:	30 91 3c 04 	lds	r19, 0x043C	; 0x80043c <g_showData+0x13>
    2df8:	28 17       	cp	r18, r24
    2dfa:	39 07       	cpc	r19, r25
    2dfc:	39 f4       	brne	.+14     	; 0x2e0c <isr_lcd_10mhz_ref_osc_show_ppm+0x1c>
    2dfe:	20 91 3d 04 	lds	r18, 0x043D	; 0x80043d <g_showData+0x14>
    2e02:	30 91 3e 04 	lds	r19, 0x043E	; 0x80043e <g_showData+0x15>
    2e06:	26 17       	cp	r18, r22
    2e08:	37 07       	cpc	r19, r23
    2e0a:	69 f0       	breq	.+26     	; 0x2e26 <isr_lcd_10mhz_ref_osc_show_ppm+0x36>
    2e0c:	20 91 29 04 	lds	r18, 0x0429	; 0x800429 <g_showData>
    2e10:	28 60       	ori	r18, 0x08	; 8
    2e12:	20 93 29 04 	sts	0x0429, r18	; 0x800429 <g_showData>
    2e16:	90 93 3c 04 	sts	0x043C, r25	; 0x80043c <g_showData+0x13>
    2e1a:	80 93 3b 04 	sts	0x043B, r24	; 0x80043b <g_showData+0x12>
    2e1e:	70 93 3e 04 	sts	0x043E, r23	; 0x80043e <g_showData+0x15>
    2e22:	60 93 3d 04 	sts	0x043D, r22	; 0x80043d <g_showData+0x14>
    2e26:	08 95       	ret

00002e28 <isr_lcd_10mhz_ref_osc_show_pwm>:
    2e28:	90 91 4f 04 	lds	r25, 0x044F	; 0x80044f <g_showData+0x26>
    2e2c:	98 13       	cpse	r25, r24
    2e2e:	04 c0       	rjmp	.+8      	; 0x2e38 <isr_lcd_10mhz_ref_osc_show_pwm+0x10>
    2e30:	90 91 50 04 	lds	r25, 0x0450	; 0x800450 <g_showData+0x27>
    2e34:	96 17       	cp	r25, r22
    2e36:	49 f0       	breq	.+18     	; 0x2e4a <isr_lcd_10mhz_ref_osc_show_pwm+0x22>
    2e38:	90 91 29 04 	lds	r25, 0x0429	; 0x800429 <g_showData>
    2e3c:	90 61       	ori	r25, 0x10	; 16
    2e3e:	90 93 29 04 	sts	0x0429, r25	; 0x800429 <g_showData>
    2e42:	80 93 4f 04 	sts	0x044F, r24	; 0x80044f <g_showData+0x26>
    2e46:	60 93 50 04 	sts	0x0450, r22	; 0x800450 <g_showData+0x27>
    2e4a:	08 95       	ret

00002e4c <isr_lcd_10mhz_ref_osc_show_pv>:
    2e4c:	90 91 51 04 	lds	r25, 0x0451	; 0x800451 <g_showData+0x28>
    2e50:	98 13       	cpse	r25, r24
    2e52:	07 c0       	rjmp	.+14     	; 0x2e62 <isr_lcd_10mhz_ref_osc_show_pv+0x16>
    2e54:	20 91 3f 04 	lds	r18, 0x043F	; 0x80043f <g_showData+0x16>
    2e58:	30 91 40 04 	lds	r19, 0x0440	; 0x800440 <g_showData+0x17>
    2e5c:	26 17       	cp	r18, r22
    2e5e:	37 07       	cpc	r19, r23
    2e60:	59 f0       	breq	.+22     	; 0x2e78 <isr_lcd_10mhz_ref_osc_show_pv+0x2c>
    2e62:	90 91 29 04 	lds	r25, 0x0429	; 0x800429 <g_showData>
    2e66:	90 62       	ori	r25, 0x20	; 32
    2e68:	90 93 29 04 	sts	0x0429, r25	; 0x800429 <g_showData>
    2e6c:	80 93 51 04 	sts	0x0451, r24	; 0x800451 <g_showData+0x28>
    2e70:	70 93 40 04 	sts	0x0440, r23	; 0x800440 <g_showData+0x17>
    2e74:	60 93 3f 04 	sts	0x043F, r22	; 0x80043f <g_showData+0x16>
    2e78:	08 95       	ret

00002e7a <isr_lcd_10mhz_ref_osc_show_sat_use>:
    2e7a:	90 91 52 04 	lds	r25, 0x0452	; 0x800452 <g_showData+0x29>
    2e7e:	98 13       	cpse	r25, r24
    2e80:	08 c0       	rjmp	.+16     	; 0x2e92 <isr_lcd_10mhz_ref_osc_show_sat_use+0x18>
    2e82:	90 91 53 04 	lds	r25, 0x0453	; 0x800453 <g_showData+0x2a>
    2e86:	96 13       	cpse	r25, r22
    2e88:	04 c0       	rjmp	.+8      	; 0x2e92 <isr_lcd_10mhz_ref_osc_show_sat_use+0x18>
    2e8a:	90 91 54 04 	lds	r25, 0x0454	; 0x800454 <g_showData+0x2b>
    2e8e:	94 17       	cp	r25, r20
    2e90:	59 f0       	breq	.+22     	; 0x2ea8 <isr_lcd_10mhz_ref_osc_show_sat_use+0x2e>
    2e92:	90 91 29 04 	lds	r25, 0x0429	; 0x800429 <g_showData>
    2e96:	90 64       	ori	r25, 0x40	; 64
    2e98:	90 93 29 04 	sts	0x0429, r25	; 0x800429 <g_showData>
    2e9c:	80 93 52 04 	sts	0x0452, r24	; 0x800452 <g_showData+0x29>
    2ea0:	60 93 53 04 	sts	0x0453, r22	; 0x800453 <g_showData+0x2a>
    2ea4:	40 93 54 04 	sts	0x0454, r20	; 0x800454 <g_showData+0x2b>
    2ea8:	08 95       	ret

00002eaa <isr_lcd_10mhz_ref_osc_show_sat_dop>:
    2eaa:	20 91 41 04 	lds	r18, 0x0441	; 0x800441 <g_showData+0x18>
    2eae:	30 91 42 04 	lds	r19, 0x0442	; 0x800442 <g_showData+0x19>
    2eb2:	28 17       	cp	r18, r24
    2eb4:	39 07       	cpc	r19, r25
    2eb6:	49 f0       	breq	.+18     	; 0x2eca <isr_lcd_10mhz_ref_osc_show_sat_dop+0x20>
    2eb8:	20 91 29 04 	lds	r18, 0x0429	; 0x800429 <g_showData>
    2ebc:	20 68       	ori	r18, 0x80	; 128
    2ebe:	20 93 29 04 	sts	0x0429, r18	; 0x800429 <g_showData>
    2ec2:	90 93 42 04 	sts	0x0442, r25	; 0x800442 <g_showData+0x19>
    2ec6:	80 93 41 04 	sts	0x0441, r24	; 0x800441 <g_showData+0x18>
    2eca:	08 95       	ret

00002ecc <isr_lcd_10mhz_ref_osc_show_pos_state>:
    2ecc:	90 91 55 04 	lds	r25, 0x0455	; 0x800455 <g_showData+0x2c>
    2ed0:	98 13       	cpse	r25, r24
    2ed2:	04 c0       	rjmp	.+8      	; 0x2edc <isr_lcd_10mhz_ref_osc_show_pos_state+0x10>
    2ed4:	90 91 56 04 	lds	r25, 0x0456	; 0x800456 <g_showData+0x2d>
    2ed8:	96 17       	cp	r25, r22
    2eda:	49 f0       	breq	.+18     	; 0x2eee <isr_lcd_10mhz_ref_osc_show_pos_state+0x22>
    2edc:	90 91 2a 04 	lds	r25, 0x042A	; 0x80042a <g_showData+0x1>
    2ee0:	91 60       	ori	r25, 0x01	; 1
    2ee2:	90 93 2a 04 	sts	0x042A, r25	; 0x80042a <g_showData+0x1>
    2ee6:	80 93 55 04 	sts	0x0455, r24	; 0x800455 <g_showData+0x2c>
    2eea:	60 93 56 04 	sts	0x0456, r22	; 0x800456 <g_showData+0x2d>
    2eee:	08 95       	ret

00002ef0 <isr_lcd_10mhz_ref_osc_show_pos_lat>:
    2ef0:	90 91 57 04 	lds	r25, 0x0457	; 0x800457 <g_showData+0x2e>
    2ef4:	98 13       	cpse	r25, r24
    2ef6:	0f c0       	rjmp	.+30     	; 0x2f16 <isr_lcd_10mhz_ref_osc_show_pos_lat+0x26>
    2ef8:	90 91 58 04 	lds	r25, 0x0458	; 0x800458 <g_showData+0x2f>
    2efc:	96 13       	cpse	r25, r22
    2efe:	0b c0       	rjmp	.+22     	; 0x2f16 <isr_lcd_10mhz_ref_osc_show_pos_lat+0x26>
    2f00:	90 91 59 04 	lds	r25, 0x0459	; 0x800459 <g_showData+0x30>
    2f04:	94 13       	cpse	r25, r20
    2f06:	07 c0       	rjmp	.+14     	; 0x2f16 <isr_lcd_10mhz_ref_osc_show_pos_lat+0x26>
    2f08:	e0 91 43 04 	lds	r30, 0x0443	; 0x800443 <g_showData+0x1a>
    2f0c:	f0 91 44 04 	lds	r31, 0x0444	; 0x800444 <g_showData+0x1b>
    2f10:	e2 17       	cp	r30, r18
    2f12:	f3 07       	cpc	r31, r19
    2f14:	79 f0       	breq	.+30     	; 0x2f34 <isr_lcd_10mhz_ref_osc_show_pos_lat+0x44>
    2f16:	90 91 2a 04 	lds	r25, 0x042A	; 0x80042a <g_showData+0x1>
    2f1a:	92 60       	ori	r25, 0x02	; 2
    2f1c:	90 93 2a 04 	sts	0x042A, r25	; 0x80042a <g_showData+0x1>
    2f20:	80 93 57 04 	sts	0x0457, r24	; 0x800457 <g_showData+0x2e>
    2f24:	60 93 58 04 	sts	0x0458, r22	; 0x800458 <g_showData+0x2f>
    2f28:	40 93 59 04 	sts	0x0459, r20	; 0x800459 <g_showData+0x30>
    2f2c:	30 93 44 04 	sts	0x0444, r19	; 0x800444 <g_showData+0x1b>
    2f30:	20 93 43 04 	sts	0x0443, r18	; 0x800443 <g_showData+0x1a>
    2f34:	08 95       	ret

00002f36 <isr_lcd_10mhz_ref_osc_show_pos_lon>:
    2f36:	90 91 5a 04 	lds	r25, 0x045A	; 0x80045a <g_showData+0x31>
    2f3a:	98 13       	cpse	r25, r24
    2f3c:	0f c0       	rjmp	.+30     	; 0x2f5c <isr_lcd_10mhz_ref_osc_show_pos_lon+0x26>
    2f3e:	90 91 5b 04 	lds	r25, 0x045B	; 0x80045b <g_showData+0x32>
    2f42:	96 13       	cpse	r25, r22
    2f44:	0b c0       	rjmp	.+22     	; 0x2f5c <isr_lcd_10mhz_ref_osc_show_pos_lon+0x26>
    2f46:	90 91 5c 04 	lds	r25, 0x045C	; 0x80045c <g_showData+0x33>
    2f4a:	94 13       	cpse	r25, r20
    2f4c:	07 c0       	rjmp	.+14     	; 0x2f5c <isr_lcd_10mhz_ref_osc_show_pos_lon+0x26>
    2f4e:	e0 91 45 04 	lds	r30, 0x0445	; 0x800445 <g_showData+0x1c>
    2f52:	f0 91 46 04 	lds	r31, 0x0446	; 0x800446 <g_showData+0x1d>
    2f56:	e2 17       	cp	r30, r18
    2f58:	f3 07       	cpc	r31, r19
    2f5a:	79 f0       	breq	.+30     	; 0x2f7a <isr_lcd_10mhz_ref_osc_show_pos_lon+0x44>
    2f5c:	90 91 2a 04 	lds	r25, 0x042A	; 0x80042a <g_showData+0x1>
    2f60:	94 60       	ori	r25, 0x04	; 4
    2f62:	90 93 2a 04 	sts	0x042A, r25	; 0x80042a <g_showData+0x1>
    2f66:	80 93 5a 04 	sts	0x045A, r24	; 0x80045a <g_showData+0x31>
    2f6a:	60 93 5b 04 	sts	0x045B, r22	; 0x80045b <g_showData+0x32>
    2f6e:	40 93 5c 04 	sts	0x045C, r20	; 0x80045c <g_showData+0x33>
    2f72:	30 93 46 04 	sts	0x0446, r19	; 0x800446 <g_showData+0x1d>
    2f76:	20 93 45 04 	sts	0x0445, r18	; 0x800445 <g_showData+0x1c>
    2f7a:	08 95       	ret

00002f7c <isr_lcd_10mhz_ref_osc_show_pos_height>:
    2f7c:	20 91 47 04 	lds	r18, 0x0447	; 0x800447 <g_showData+0x1e>
    2f80:	30 91 48 04 	lds	r19, 0x0448	; 0x800448 <g_showData+0x1f>
    2f84:	28 17       	cp	r18, r24
    2f86:	39 07       	cpc	r19, r25
    2f88:	21 f4       	brne	.+8      	; 0x2f92 <isr_lcd_10mhz_ref_osc_show_pos_height+0x16>
    2f8a:	20 91 5d 04 	lds	r18, 0x045D	; 0x80045d <g_showData+0x34>
    2f8e:	26 17       	cp	r18, r22
    2f90:	59 f0       	breq	.+22     	; 0x2fa8 <isr_lcd_10mhz_ref_osc_show_pos_height+0x2c>
    2f92:	20 91 2a 04 	lds	r18, 0x042A	; 0x80042a <g_showData+0x1>
    2f96:	28 60       	ori	r18, 0x08	; 8
    2f98:	20 93 2a 04 	sts	0x042A, r18	; 0x80042a <g_showData+0x1>
    2f9c:	90 93 48 04 	sts	0x0448, r25	; 0x800448 <g_showData+0x1f>
    2fa0:	80 93 47 04 	sts	0x0447, r24	; 0x800447 <g_showData+0x1e>
    2fa4:	60 93 5d 04 	sts	0x045D, r22	; 0x80045d <g_showData+0x34>
    2fa8:	08 95       	ret

00002faa <lcd_get_sysfont>:
    2faa:	83 e0       	ldi	r24, 0x03	; 3
    2fac:	91 e0       	ldi	r25, 0x01	; 1
    2fae:	08 95       	ret

00002fb0 <lcd_init>:
    2fb0:	82 ee       	ldi	r24, 0xE2	; 226
    2fb2:	0e 94 50 0c 	call	0x18a0	; 0x18a0 <lcd_bus_write_cmd>
    2fb6:	6b e2       	ldi	r22, 0x2B	; 43
    2fb8:	78 e6       	ldi	r23, 0x68	; 104
    2fba:	80 e0       	ldi	r24, 0x00	; 0
    2fbc:	90 e0       	ldi	r25, 0x00	; 0
    2fbe:	0e 94 39 0c 	call	0x1872	; 0x1872 <__portable_avr_delay_cycles>
    2fc2:	0e 94 44 0c 	call	0x1888	; 0x1888 <lcd_bus_read_status>
    2fc6:	87 fd       	sbrc	r24, 7
    2fc8:	06 c0       	rjmp	.+12     	; 0x2fd6 <lcd_init+0x26>
    2fca:	0e 94 86 0c 	call	0x190c	; 0x190c <lcd_enable.part.0>
    2fce:	0e 94 cb 0c 	call	0x1996	; 0x1996 <lcd_cls>
    2fd2:	80 e0       	ldi	r24, 0x00	; 0
    2fd4:	08 95       	ret
    2fd6:	81 e0       	ldi	r24, 0x01	; 1
    2fd8:	08 95       	ret

00002fda <isr_lcd_set_mode>:
    2fda:	80 93 28 04 	sts	0x0428, r24	; 0x800428 <g_SmartLCD_mode>
    2fde:	88 23       	and	r24, r24
    2fe0:	31 f0       	breq	.+12     	; 0x2fee <isr_lcd_set_mode+0x14>
    2fe2:	80 91 5e 04 	lds	r24, 0x045E	; 0x80045e <g_status>
    2fe6:	8e 7f       	andi	r24, 0xFE	; 254
    2fe8:	80 93 5e 04 	sts	0x045E, r24	; 0x80045e <g_status>
    2fec:	08 95       	ret
    2fee:	e0 df       	rcall	.-64     	; 0x2fb0 <lcd_init>
    2ff0:	81 ef       	ldi	r24, 0xF1	; 241
    2ff2:	ab cd       	rjmp	.-1194   	; 0x2b4a <lcd_test>

00002ff4 <lcd_shutdown>:
    2ff4:	82 ee       	ldi	r24, 0xE2	; 226
    2ff6:	0e 94 50 0c 	call	0x18a0	; 0x18a0 <lcd_bus_write_cmd>
    2ffa:	6b e6       	ldi	r22, 0x6B	; 107
    2ffc:	7a e0       	ldi	r23, 0x0A	; 10
    2ffe:	80 e0       	ldi	r24, 0x00	; 0
    3000:	90 e0       	ldi	r25, 0x00	; 0
    3002:	0c 94 39 0c 	jmp	0x1872	; 0x1872 <__portable_avr_delay_cycles>

00003006 <s_twi_tx_done>:
#endif

static void s_twi_tx_done(void)
{
	// Called when  s_tx_lock == 0
	if (s_tx_next_len) {
    3006:	e0 91 22 04 	lds	r30, 0x0422	; 0x800422 <s_tx_next_len>
    300a:	ee 23       	and	r30, r30
    300c:	51 f0       	breq	.+20     	; 0x3022 <s_twi_tx_done+0x1c>
    300e:	f0 e0       	ldi	r31, 0x00	; 0
    3010:	e5 5e       	subi	r30, 0xE5	; 229
    3012:	fb 4f       	sbci	r31, 0xFB	; 251
		// Load	next master message
		for (int idx = s_tx_next_len; idx >= 0; --idx) {
			s_tx_d[idx] = s_tx_next_d[idx];
    3014:	12 92       	st	-Z, r1
static void s_twi_tx_done(void)
{
	// Called when  s_tx_lock == 0
	if (s_tx_next_len) {
		// Load	next master message
		for (int idx = s_tx_next_len; idx >= 0; --idx) {
    3016:	84 e0       	ldi	r24, 0x04	; 4
    3018:	ea 31       	cpi	r30, 0x1A	; 26
    301a:	f8 07       	cpc	r31, r24
    301c:	d9 f7       	brne	.-10     	; 0x3014 <s_twi_tx_done+0xe>
			s_tx_d[idx] = s_tx_next_d[idx];
		}
		s_tx_len = s_tx_next_len;
		s_tx_next_len = 0;
    301e:	10 92 22 04 	sts	0x0422, r1	; 0x800422 <s_tx_next_len>
    3022:	08 95       	ret

00003024 <s_isr_twi_rcvd_command_closed_form.isra.1.constprop.2>:
	uint8_t err = 1;
	// TODO: implementation
	return err;
}

static void s_isr_twi_rcvd_command_closed_form(uint8_t data[], uint8_t cnt)
    3024:	cf 92       	push	r12
    3026:	ef 92       	push	r14
    3028:	0f 93       	push	r16
			{
				// do nothing
			}
		}

	} else if ((data[0] == TWI_SLAVE_ADDR_SMARTLCD) && (g_SmartLCD_mode == C_SMART_LCD_MODE_SMARTLCD)) {
    302a:	80 91 11 04 	lds	r24, 0x0411	; 0x800411 <s_rx_d>
    302e:	82 32       	cpi	r24, 0x22	; 34
    3030:	09 f0       	breq	.+2      	; 0x3034 <s_isr_twi_rcvd_command_closed_form.isra.1.constprop.2+0x10>
    3032:	5b c1       	rjmp	.+694    	; 0x32ea <s_isr_twi_rcvd_command_closed_form.isra.1.constprop.2+0x2c6>

static void s_isr_twi_rcvd_command_closed_form(uint8_t data[], uint8_t cnt)
{
	uint8_t prepareBuf[4] = { 0 };
	uint8_t isGCA	= !data[0];
	uint8_t cmd		=  data[1];
    3034:	e0 91 12 04 	lds	r30, 0x0412	; 0x800412 <s_rx_d+0x1>
			{
				// do nothing
			}
		}

	} else if ((data[0] == TWI_SLAVE_ADDR_SMARTLCD) && (g_SmartLCD_mode == C_SMART_LCD_MODE_SMARTLCD)) {
    3038:	80 91 28 04 	lds	r24, 0x0428	; 0x800428 <g_SmartLCD_mode>
    303c:	80 31       	cpi	r24, 0x10	; 16
    303e:	09 f0       	breq	.+2      	; 0x3042 <s_isr_twi_rcvd_command_closed_form.isra.1.constprop.2+0x1e>
    3040:	b0 c0       	rjmp	.+352    	; 0x31a2 <s_isr_twi_rcvd_command_closed_form.isra.1.constprop.2+0x17e>
		switch (cmd) {
    3042:	e2 33       	cpi	r30, 0x32	; 50
    3044:	09 f4       	brne	.+2      	; 0x3048 <s_isr_twi_rcvd_command_closed_form.isra.1.constprop.2+0x24>
    3046:	94 c0       	rjmp	.+296    	; 0x3170 <s_isr_twi_rcvd_command_closed_form.isra.1.constprop.2+0x14c>
    3048:	80 f4       	brcc	.+32     	; 0x306a <s_isr_twi_rcvd_command_closed_form.isra.1.constprop.2+0x46>
    304a:	e4 31       	cpi	r30, 0x14	; 20
    304c:	59 f1       	breq	.+86     	; 0x30a4 <s_isr_twi_rcvd_command_closed_form.isra.1.constprop.2+0x80>
    304e:	40 f4       	brcc	.+16     	; 0x3060 <s_isr_twi_rcvd_command_closed_form.isra.1.constprop.2+0x3c>
    3050:	e0 31       	cpi	r30, 0x10	; 16
    3052:	09 f0       	breq	.+2      	; 0x3056 <s_isr_twi_rcvd_command_closed_form.isra.1.constprop.2+0x32>
    3054:	4a c1       	rjmp	.+660    	; 0x32ea <s_isr_twi_rcvd_command_closed_form.isra.1.constprop.2+0x2c6>
			case TWI_SMART_LCD_CMD_CLS:					// Clear screen
				isr_smartlcd_cmd(cmd);
    3056:	80 e1       	ldi	r24, 0x10	; 16
			{
				// do nothing
			}
		}
	}
}
    3058:	0f 91       	pop	r16
    305a:	ef 90       	pop	r14
		}

	} else if ((data[0] == TWI_SLAVE_ADDR_SMARTLCD) && (g_SmartLCD_mode == C_SMART_LCD_MODE_SMARTLCD)) {
		switch (cmd) {
			case TWI_SMART_LCD_CMD_CLS:					// Clear screen
				isr_smartlcd_cmd(cmd);
    305c:	cf 90       	pop	r12
				// do nothing
			}
		}

	} else if ((data[0] == TWI_SLAVE_ADDR_SMARTLCD) && (g_SmartLCD_mode == C_SMART_LCD_MODE_SMARTLCD)) {
		switch (cmd) {
    305e:	29 ce       	rjmp	.-942    	; 0x2cb2 <isr_smartlcd_cmd>
    3060:	e0 32       	cpi	r30, 0x20	; 32
    3062:	39 f1       	breq	.+78     	; 0x30b2 <s_isr_twi_rcvd_command_closed_form.isra.1.constprop.2+0x8e>
    3064:	e0 33       	cpi	r30, 0x30	; 48
    3066:	71 f1       	breq	.+92     	; 0x30c4 <s_isr_twi_rcvd_command_closed_form.isra.1.constprop.2+0xa0>
    3068:	40 c1       	rjmp	.+640    	; 0x32ea <s_isr_twi_rcvd_command_closed_form.isra.1.constprop.2+0x2c6>
    306a:	e6 33       	cpi	r30, 0x36	; 54
    306c:	09 f4       	brne	.+2      	; 0x3070 <s_isr_twi_rcvd_command_closed_form.isra.1.constprop.2+0x4c>
    306e:	89 c0       	rjmp	.+274    	; 0x3182 <s_isr_twi_rcvd_command_closed_form.isra.1.constprop.2+0x15e>
    3070:	60 f4       	brcc	.+24     	; 0x308a <s_isr_twi_rcvd_command_closed_form.isra.1.constprop.2+0x66>
    3072:	e4 33       	cpi	r30, 0x34	; 52
    3074:	09 f0       	breq	.+2      	; 0x3078 <s_isr_twi_rcvd_command_closed_form.isra.1.constprop.2+0x54>
			case TWI_SMART_LCD_CMD_DRAW_LINE:			// Draw line from current pencil position to next position (x, y)
				isr_smartlcd_cmd_data2(cmd, data[3], data[4]);
			break;

			case TWI_SMART_LCD_CMD_DRAW_RECT:			// Draw rectangular frame with pencil's start position with dimension (width, height)
				isr_smartlcd_cmd_data2(cmd, data[3], data[4]);
    3076:	39 c1       	rjmp	.+626    	; 0x32ea <s_isr_twi_rcvd_command_closed_form.isra.1.constprop.2+0x2c6>
    3078:	40 91 15 04 	lds	r20, 0x0415	; 0x800415 <s_rx_d+0x4>
    307c:	60 91 14 04 	lds	r22, 0x0414	; 0x800414 <s_rx_d+0x3>
			{
				// do nothing
			}
		}
	}
}
    3080:	84 e3       	ldi	r24, 0x34	; 52
    3082:	0f 91       	pop	r16
			case TWI_SMART_LCD_CMD_DRAW_LINE:			// Draw line from current pencil position to next position (x, y)
				isr_smartlcd_cmd_data2(cmd, data[3], data[4]);
			break;

			case TWI_SMART_LCD_CMD_DRAW_RECT:			// Draw rectangular frame with pencil's start position with dimension (width, height)
				isr_smartlcd_cmd_data2(cmd, data[3], data[4]);
    3084:	ef 90       	pop	r14
    3086:	cf 90       	pop	r12
				// do nothing
			}
		}

	} else if ((data[0] == TWI_SLAVE_ADDR_SMARTLCD) && (g_SmartLCD_mode == C_SMART_LCD_MODE_SMARTLCD)) {
		switch (cmd) {
    3088:	1c ce       	rjmp	.-968    	; 0x2cc2 <isr_smartlcd_cmd_data2>
    308a:	e8 33       	cpi	r30, 0x38	; 56
    308c:	09 f4       	brne	.+2      	; 0x3090 <s_isr_twi_rcvd_command_closed_form.isra.1.constprop.2+0x6c>
    308e:	82 c0       	rjmp	.+260    	; 0x3194 <s_isr_twi_rcvd_command_closed_form.isra.1.constprop.2+0x170>
    3090:	ea 33       	cpi	r30, 0x3A	; 58
    3092:	09 f0       	breq	.+2      	; 0x3096 <s_isr_twi_rcvd_command_closed_form.isra.1.constprop.2+0x72>
			case TWI_SMART_LCD_CMD_DRAW_CIRC:			// Draw circle or ellipse from the pencil's center point with (radius)
				isr_smartlcd_cmd_data1(cmd, data[3]);
			break;

			case TWI_SMART_LCD_CMD_DRAW_FILLED_CIRC:	// Draw filled circle or ellipse from the pencil's center point with (radius)
				isr_smartlcd_cmd_data1(cmd, data[3]);
    3094:	2a c1       	rjmp	.+596    	; 0x32ea <s_isr_twi_rcvd_command_closed_form.isra.1.constprop.2+0x2c6>
    3096:	60 91 14 04 	lds	r22, 0x0414	; 0x800414 <s_rx_d+0x3>
			{
				// do nothing
			}
		}
	}
}
    309a:	8a e3       	ldi	r24, 0x3A	; 58
    309c:	0f 91       	pop	r16
			case TWI_SMART_LCD_CMD_DRAW_CIRC:			// Draw circle or ellipse from the pencil's center point with (radius)
				isr_smartlcd_cmd_data1(cmd, data[3]);
			break;

			case TWI_SMART_LCD_CMD_DRAW_FILLED_CIRC:	// Draw filled circle or ellipse from the pencil's center point with (radius)
				isr_smartlcd_cmd_data1(cmd, data[3]);
    309e:	ef 90       	pop	r14
    30a0:	cf 90       	pop	r12
			case TWI_SMART_LCD_CMD_CLS:					// Clear screen
				isr_smartlcd_cmd(cmd);
			break;

			case TWI_SMART_LCD_CMD_SET_PIXEL_TYPE:		// Set next pixels (OFF / ON / XOR)
				isr_smartlcd_cmd_data1(cmd, data[2]);
    30a2:	0a ce       	rjmp	.-1004   	; 0x2cb8 <isr_smartlcd_cmd_data1>
    30a4:	60 91 13 04 	lds	r22, 0x0413	; 0x800413 <s_rx_d+0x2>
			{
				// do nothing
			}
		}
	}
}
    30a8:	84 e1       	ldi	r24, 0x14	; 20
			case TWI_SMART_LCD_CMD_CLS:					// Clear screen
				isr_smartlcd_cmd(cmd);
			break;

			case TWI_SMART_LCD_CMD_SET_PIXEL_TYPE:		// Set next pixels (OFF / ON / XOR)
				isr_smartlcd_cmd_data1(cmd, data[2]);
    30aa:	0f 91       	pop	r16
    30ac:	ef 90       	pop	r14
			break;

			case TWI_SMART_LCD_CMD_SET_POS_X_Y:			// Set pencil position (x, y)
				isr_smartlcd_cmd_data2(cmd, data[2], data[3]);
    30ae:	cf 90       	pop	r12
    30b0:	03 ce       	rjmp	.-1018   	; 0x2cb8 <isr_smartlcd_cmd_data1>
    30b2:	40 91 14 04 	lds	r20, 0x0414	; 0x800414 <s_rx_d+0x3>
			{
				// do nothing
			}
		}
	}
}
    30b6:	60 91 13 04 	lds	r22, 0x0413	; 0x800413 <s_rx_d+0x2>
    30ba:	80 e2       	ldi	r24, 0x20	; 32
			case TWI_SMART_LCD_CMD_SET_PIXEL_TYPE:		// Set next pixels (OFF / ON / XOR)
				isr_smartlcd_cmd_data1(cmd, data[2]);
			break;

			case TWI_SMART_LCD_CMD_SET_POS_X_Y:			// Set pencil position (x, y)
				isr_smartlcd_cmd_data2(cmd, data[2], data[3]);
    30bc:	0f 91       	pop	r16
    30be:	ef 90       	pop	r14
			break;

			case TWI_SMART_LCD_CMD_WRITE:				// Write text of length (length, buffer...)
			{
				switch (data[2]) {
    30c0:	cf 90       	pop	r12
    30c2:	ff cd       	rjmp	.-1026   	; 0x2cc2 <isr_smartlcd_cmd_data2>
    30c4:	80 91 13 04 	lds	r24, 0x0413	; 0x800413 <s_rx_d+0x2>
    30c8:	83 30       	cpi	r24, 0x03	; 3
    30ca:	51 f1       	breq	.+84     	; 0x3120 <s_isr_twi_rcvd_command_closed_form.isra.1.constprop.2+0xfc>
    30cc:	70 f4       	brcc	.+28     	; 0x30ea <s_isr_twi_rcvd_command_closed_form.isra.1.constprop.2+0xc6>
    30ce:	81 30       	cpi	r24, 0x01	; 1
    30d0:	01 f1       	breq	.+64     	; 0x3112 <s_isr_twi_rcvd_command_closed_form.isra.1.constprop.2+0xee>
    30d2:	82 30       	cpi	r24, 0x02	; 2
					case 1:
						isr_smartlcd_cmd_data1(cmd, data[3]);
					break;

					case 2:
						isr_smartlcd_cmd_data2(cmd, data[3], data[4]);
    30d4:	09 f0       	breq	.+2      	; 0x30d8 <s_isr_twi_rcvd_command_closed_form.isra.1.constprop.2+0xb4>
    30d6:	47 c0       	rjmp	.+142    	; 0x3166 <s_isr_twi_rcvd_command_closed_form.isra.1.constprop.2+0x142>
    30d8:	40 91 15 04 	lds	r20, 0x0415	; 0x800415 <s_rx_d+0x4>
			{
				// do nothing
			}
		}
	}
}
    30dc:	60 91 14 04 	lds	r22, 0x0414	; 0x800414 <s_rx_d+0x3>
    30e0:	80 e3       	ldi	r24, 0x30	; 48
					case 1:
						isr_smartlcd_cmd_data1(cmd, data[3]);
					break;

					case 2:
						isr_smartlcd_cmd_data2(cmd, data[3], data[4]);
    30e2:	0f 91       	pop	r16
    30e4:	ef 90       	pop	r14
				isr_smartlcd_cmd_data2(cmd, data[2], data[3]);
			break;

			case TWI_SMART_LCD_CMD_WRITE:				// Write text of length (length, buffer...)
			{
				switch (data[2]) {
    30e6:	cf 90       	pop	r12
    30e8:	ec cd       	rjmp	.-1064   	; 0x2cc2 <isr_smartlcd_cmd_data2>
    30ea:	85 30       	cpi	r24, 0x05	; 5
    30ec:	79 f1       	breq	.+94     	; 0x314c <s_isr_twi_rcvd_command_closed_form.isra.1.constprop.2+0x128>
    30ee:	18 f1       	brcs	.+70     	; 0x3136 <s_isr_twi_rcvd_command_closed_form.isra.1.constprop.2+0x112>
					case 5:
						isr_smartlcd_cmd_data5(cmd, data[3], data[4], data[5], data[6], data[7]);
					break;

					case 6:
						isr_smartlcd_cmd_data6(cmd, data[3], data[4], data[5], data[6], data[7], data[8]);
    30f0:	86 30       	cpi	r24, 0x06	; 6
    30f2:	c9 f5       	brne	.+114    	; 0x3166 <s_isr_twi_rcvd_command_closed_form.isra.1.constprop.2+0x142>
    30f4:	c0 90 19 04 	lds	r12, 0x0419	; 0x800419 <s_rx_lock>
    30f8:	e0 90 18 04 	lds	r14, 0x0418	; 0x800418 <s_rx_d+0x7>
    30fc:	00 91 17 04 	lds	r16, 0x0417	; 0x800417 <s_rx_d+0x6>
    3100:	20 91 16 04 	lds	r18, 0x0416	; 0x800416 <s_rx_d+0x5>
    3104:	40 91 15 04 	lds	r20, 0x0415	; 0x800415 <s_rx_d+0x4>
    3108:	60 91 14 04 	lds	r22, 0x0414	; 0x800414 <s_rx_d+0x3>

			case TWI_SMART_LCD_CMD_WRITE:				// Write text of length (length, buffer...)
			{
				switch (data[2]) {
					case 1:
						isr_smartlcd_cmd_data1(cmd, data[3]);
    310c:	80 e3       	ldi	r24, 0x30	; 48
    310e:	fd dd       	rcall	.-1030   	; 0x2d0a <isr_smartlcd_cmd_data6>
    3110:	ec c0       	rjmp	.+472    	; 0x32ea <s_isr_twi_rcvd_command_closed_form.isra.1.constprop.2+0x2c6>
			{
				// do nothing
			}
		}
	}
}
    3112:	60 91 14 04 	lds	r22, 0x0414	; 0x800414 <s_rx_d+0x3>
    3116:	80 e3       	ldi	r24, 0x30	; 48

			case TWI_SMART_LCD_CMD_WRITE:				// Write text of length (length, buffer...)
			{
				switch (data[2]) {
					case 1:
						isr_smartlcd_cmd_data1(cmd, data[3]);
    3118:	0f 91       	pop	r16
    311a:	ef 90       	pop	r14
					case 2:
						isr_smartlcd_cmd_data2(cmd, data[3], data[4]);
					break;

					case 3:
						isr_smartlcd_cmd_data3(cmd, data[3], data[4], data[5]);
    311c:	cf 90       	pop	r12
    311e:	cc cd       	rjmp	.-1128   	; 0x2cb8 <isr_smartlcd_cmd_data1>
    3120:	20 91 16 04 	lds	r18, 0x0416	; 0x800416 <s_rx_d+0x5>
    3124:	40 91 15 04 	lds	r20, 0x0415	; 0x800415 <s_rx_d+0x4>
			{
				// do nothing
			}
		}
	}
}
    3128:	60 91 14 04 	lds	r22, 0x0414	; 0x800414 <s_rx_d+0x3>
    312c:	80 e3       	ldi	r24, 0x30	; 48
					case 2:
						isr_smartlcd_cmd_data2(cmd, data[3], data[4]);
					break;

					case 3:
						isr_smartlcd_cmd_data3(cmd, data[3], data[4], data[5]);
    312e:	0f 91       	pop	r16
					break;

					case 4:
						isr_smartlcd_cmd_data4(cmd, data[3], data[4], data[5], data[6]);
    3130:	ef 90       	pop	r14
    3132:	cf 90       	pop	r12
    3134:	cc cd       	rjmp	.-1128   	; 0x2cce <isr_smartlcd_cmd_data3>
    3136:	00 91 17 04 	lds	r16, 0x0417	; 0x800417 <s_rx_d+0x6>
    313a:	20 91 16 04 	lds	r18, 0x0416	; 0x800416 <s_rx_d+0x5>
    313e:	40 91 15 04 	lds	r20, 0x0415	; 0x800415 <s_rx_d+0x4>
    3142:	60 91 14 04 	lds	r22, 0x0414	; 0x800414 <s_rx_d+0x3>
					break;

					case 5:
						isr_smartlcd_cmd_data5(cmd, data[3], data[4], data[5], data[6], data[7]);
    3146:	80 e3       	ldi	r24, 0x30	; 48
    3148:	c9 dd       	rcall	.-1134   	; 0x2cdc <isr_smartlcd_cmd_data4>
    314a:	cf c0       	rjmp	.+414    	; 0x32ea <s_isr_twi_rcvd_command_closed_form.isra.1.constprop.2+0x2c6>
    314c:	e0 90 18 04 	lds	r14, 0x0418	; 0x800418 <s_rx_d+0x7>
    3150:	00 91 17 04 	lds	r16, 0x0417	; 0x800417 <s_rx_d+0x6>
    3154:	20 91 16 04 	lds	r18, 0x0416	; 0x800416 <s_rx_d+0x5>
    3158:	40 91 15 04 	lds	r20, 0x0415	; 0x800415 <s_rx_d+0x4>
    315c:	60 91 14 04 	lds	r22, 0x0414	; 0x800414 <s_rx_d+0x3>
			{
				// do nothing
			}
		}
	}
}
    3160:	80 e3       	ldi	r24, 0x30	; 48
    3162:	c6 dd       	rcall	.-1140   	; 0x2cf0 <isr_smartlcd_cmd_data5>
						isr_smartlcd_cmd_data6(cmd, data[3], data[4], data[5], data[6], data[7], data[8]);
					break;

					case 0:
					default:
						isr_smartlcd_cmd(cmd);
    3164:	c2 c0       	rjmp	.+388    	; 0x32ea <s_isr_twi_rcvd_command_closed_form.isra.1.constprop.2+0x2c6>
    3166:	80 e3       	ldi	r24, 0x30	; 48
				}
			}
			break;

			case TWI_SMART_LCD_CMD_DRAW_LINE:			// Draw line from current pencil position to next position (x, y)
				isr_smartlcd_cmd_data2(cmd, data[3], data[4]);
    3168:	0f 91       	pop	r16
    316a:	ef 90       	pop	r14
    316c:	cf 90       	pop	r12
    316e:	a1 cd       	rjmp	.-1214   	; 0x2cb2 <isr_smartlcd_cmd>
			{
				// do nothing
			}
		}
	}
}
    3170:	40 91 15 04 	lds	r20, 0x0415	; 0x800415 <s_rx_d+0x4>
				}
			}
			break;

			case TWI_SMART_LCD_CMD_DRAW_LINE:			// Draw line from current pencil position to next position (x, y)
				isr_smartlcd_cmd_data2(cmd, data[3], data[4]);
    3174:	60 91 14 04 	lds	r22, 0x0414	; 0x800414 <s_rx_d+0x3>
			case TWI_SMART_LCD_CMD_DRAW_RECT:			// Draw rectangular frame with pencil's start position with dimension (width, height)
				isr_smartlcd_cmd_data2(cmd, data[3], data[4]);
			break;

			case TWI_SMART_LCD_CMD_DRAW_FILLED_RECT:	// Draw filled rectangular frame with pencil's start position with dimension (width, height)
				isr_smartlcd_cmd_data2(cmd, data[3], data[4]);
    3178:	82 e3       	ldi	r24, 0x32	; 50
    317a:	0f 91       	pop	r16
    317c:	ef 90       	pop	r14
    317e:	cf 90       	pop	r12
			{
				// do nothing
			}
		}
	}
}
    3180:	a0 cd       	rjmp	.-1216   	; 0x2cc2 <isr_smartlcd_cmd_data2>
    3182:	40 91 15 04 	lds	r20, 0x0415	; 0x800415 <s_rx_d+0x4>
			case TWI_SMART_LCD_CMD_DRAW_RECT:			// Draw rectangular frame with pencil's start position with dimension (width, height)
				isr_smartlcd_cmd_data2(cmd, data[3], data[4]);
			break;

			case TWI_SMART_LCD_CMD_DRAW_FILLED_RECT:	// Draw filled rectangular frame with pencil's start position with dimension (width, height)
				isr_smartlcd_cmd_data2(cmd, data[3], data[4]);
    3186:	60 91 14 04 	lds	r22, 0x0414	; 0x800414 <s_rx_d+0x3>
			break;

			case TWI_SMART_LCD_CMD_DRAW_CIRC:			// Draw circle or ellipse from the pencil's center point with (radius)
				isr_smartlcd_cmd_data1(cmd, data[3]);
    318a:	86 e3       	ldi	r24, 0x36	; 54
    318c:	0f 91       	pop	r16
    318e:	ef 90       	pop	r14
			{
				// do nothing
			}
		}
	}
}
    3190:	cf 90       	pop	r12
    3192:	97 cd       	rjmp	.-1234   	; 0x2cc2 <isr_smartlcd_cmd_data2>
    3194:	60 91 14 04 	lds	r22, 0x0414	; 0x800414 <s_rx_d+0x3>
			{
				// do nothing
			}
		}

	} else if ((data[0] == TWI_SLAVE_ADDR_SMARTLCD) && (g_SmartLCD_mode == C_SMART_LCD_MODE_REFOSC)) {
    3198:	88 e3       	ldi	r24, 0x38	; 56
    319a:	0f 91       	pop	r16
    319c:	ef 90       	pop	r14
		switch (cmd) {
    319e:	cf 90       	pop	r12
    31a0:	8b cd       	rjmp	.-1258   	; 0x2cb8 <isr_smartlcd_cmd_data1>
    31a2:	80 32       	cpi	r24, 0x20	; 32
    31a4:	09 f0       	breq	.+2      	; 0x31a8 <s_isr_twi_rcvd_command_closed_form.isra.1.constprop.2+0x184>
    31a6:	8e c0       	rjmp	.+284    	; 0x32c4 <s_isr_twi_rcvd_command_closed_form.isra.1.constprop.2+0x2a0>
    31a8:	8e 2f       	mov	r24, r30
    31aa:	90 e0       	ldi	r25, 0x00	; 0
    31ac:	fc 01       	movw	r30, r24
    31ae:	e0 58       	subi	r30, 0x80	; 128
    31b0:	f1 09       	sbc	r31, r1
    31b2:	ee 30       	cpi	r30, 0x0E	; 14
    31b4:	f1 05       	cpc	r31, r1
			case TWI_SMART_LCD_CMD_SHOW_CLK_STATE:
				isr_lcd_10mhz_ref_osc_show_clkstate_phaseVolt1000_phaseDeg100(data[2], (uint16_t) (data[3] | (data[4] << 8)), (int16_t) (data[5] | (data[6] << 8)));
    31b6:	08 f0       	brcs	.+2      	; 0x31ba <s_isr_twi_rcvd_command_closed_form.isra.1.constprop.2+0x196>
    31b8:	98 c0       	rjmp	.+304    	; 0x32ea <s_isr_twi_rcvd_command_closed_form.isra.1.constprop.2+0x2c6>
    31ba:	ec 5c       	subi	r30, 0xCC	; 204
    31bc:	ff 4f       	sbci	r31, 0xFF	; 255
    31be:	46 c7       	rjmp	.+3724   	; 0x404c <__tablejump2__>
    31c0:	40 91 16 04 	lds	r20, 0x0416	; 0x800416 <s_rx_d+0x5>
    31c4:	50 91 17 04 	lds	r21, 0x0417	; 0x800417 <s_rx_d+0x6>
			{
				// do nothing
			}
		}
	}
}
    31c8:	60 91 14 04 	lds	r22, 0x0414	; 0x800414 <s_rx_d+0x3>
    31cc:	70 91 15 04 	lds	r23, 0x0415	; 0x800415 <s_rx_d+0x4>
		}

	} else if ((data[0] == TWI_SLAVE_ADDR_SMARTLCD) && (g_SmartLCD_mode == C_SMART_LCD_MODE_REFOSC)) {
		switch (cmd) {
			case TWI_SMART_LCD_CMD_SHOW_CLK_STATE:
				isr_lcd_10mhz_ref_osc_show_clkstate_phaseVolt1000_phaseDeg100(data[2], (uint16_t) (data[3] | (data[4] << 8)), (int16_t) (data[5] | (data[6] << 8)));
    31d0:	80 91 13 04 	lds	r24, 0x0413	; 0x800413 <s_rx_d+0x2>
			break;

			case TWI_SMART_LCD_CMD_SHOW_YEAR_MON_DAY:
				isr_lcd_10mhz_ref_osc_show_date(data[2] | (data[3] << 8), data[4], data[5]);
    31d4:	0f 91       	pop	r16
    31d6:	ef 90       	pop	r14
    31d8:	cf 90       	pop	r12
    31da:	a7 cd       	rjmp	.-1202   	; 0x2d2a <isr_lcd_10mhz_ref_osc_show_clkstate_phaseVolt1000_phaseDeg100>
    31dc:	40 91 16 04 	lds	r20, 0x0416	; 0x800416 <s_rx_d+0x5>
			{
				// do nothing
			}
		}
	}
}
    31e0:	60 91 15 04 	lds	r22, 0x0415	; 0x800415 <s_rx_d+0x4>
    31e4:	80 91 13 04 	lds	r24, 0x0413	; 0x800413 <s_rx_d+0x2>
			case TWI_SMART_LCD_CMD_SHOW_CLK_STATE:
				isr_lcd_10mhz_ref_osc_show_clkstate_phaseVolt1000_phaseDeg100(data[2], (uint16_t) (data[3] | (data[4] << 8)), (int16_t) (data[5] | (data[6] << 8)));
			break;

			case TWI_SMART_LCD_CMD_SHOW_YEAR_MON_DAY:
				isr_lcd_10mhz_ref_osc_show_date(data[2] | (data[3] << 8), data[4], data[5]);
    31e8:	90 91 14 04 	lds	r25, 0x0414	; 0x800414 <s_rx_d+0x3>
			break;

			case TWI_SMART_LCD_CMD_SHOW_HR_MIN_SEC:
				isr_lcd_10mhz_ref_osc_show_time(data[2], data[3], data[4]);
    31ec:	0f 91       	pop	r16
    31ee:	ef 90       	pop	r14
    31f0:	cf 90       	pop	r12
    31f2:	bd cd       	rjmp	.-1158   	; 0x2d6e <isr_lcd_10mhz_ref_osc_show_date>
			{
				// do nothing
			}
		}
	}
}
    31f4:	40 91 15 04 	lds	r20, 0x0415	; 0x800415 <s_rx_d+0x4>
    31f8:	60 91 14 04 	lds	r22, 0x0414	; 0x800414 <s_rx_d+0x3>
			case TWI_SMART_LCD_CMD_SHOW_HR_MIN_SEC:
				isr_lcd_10mhz_ref_osc_show_time(data[2], data[3], data[4]);
			break;

			case TWI_SMART_LCD_CMD_SHOW_PPB:
				isr_lcd_10mhz_ref_osc_show_ppm((int16_t) (data[2] | (data[3] << 8)), data[4] | (data[5] << 8));
    31fc:	80 91 13 04 	lds	r24, 0x0413	; 0x800413 <s_rx_d+0x2>
    3200:	0f 91       	pop	r16
    3202:	ef 90       	pop	r14
    3204:	cf 90       	pop	r12
    3206:	d6 cd       	rjmp	.-1108   	; 0x2db4 <isr_lcd_10mhz_ref_osc_show_time>
    3208:	60 91 15 04 	lds	r22, 0x0415	; 0x800415 <s_rx_d+0x4>
			{
				// do nothing
			}
		}
	}
}
    320c:	70 91 16 04 	lds	r23, 0x0416	; 0x800416 <s_rx_d+0x5>
			case TWI_SMART_LCD_CMD_SHOW_HR_MIN_SEC:
				isr_lcd_10mhz_ref_osc_show_time(data[2], data[3], data[4]);
			break;

			case TWI_SMART_LCD_CMD_SHOW_PPB:
				isr_lcd_10mhz_ref_osc_show_ppm((int16_t) (data[2] | (data[3] << 8)), data[4] | (data[5] << 8));
    3210:	80 91 13 04 	lds	r24, 0x0413	; 0x800413 <s_rx_d+0x2>
			break;

			case TWI_SMART_LCD_CMD_SHOW_TCXO_PWM:
				isr_lcd_10mhz_ref_osc_show_pwm(data[2], data[3]);
    3214:	90 91 14 04 	lds	r25, 0x0414	; 0x800414 <s_rx_d+0x3>
    3218:	0f 91       	pop	r16
			{
				// do nothing
			}
		}
	}
}
    321a:	ef 90       	pop	r14
    321c:	cf 90       	pop	r12
			case TWI_SMART_LCD_CMD_SHOW_PPB:
				isr_lcd_10mhz_ref_osc_show_ppm((int16_t) (data[2] | (data[3] << 8)), data[4] | (data[5] << 8));
			break;

			case TWI_SMART_LCD_CMD_SHOW_TCXO_PWM:
				isr_lcd_10mhz_ref_osc_show_pwm(data[2], data[3]);
    321e:	e8 cd       	rjmp	.-1072   	; 0x2df0 <isr_lcd_10mhz_ref_osc_show_ppm>
			break;

			case TWI_SMART_LCD_CMD_SHOW_TCXO_VC:
				isr_lcd_10mhz_ref_osc_show_pv(data[2], data[3] | (data[4] << 8));
    3220:	60 91 14 04 	lds	r22, 0x0414	; 0x800414 <s_rx_d+0x3>
    3224:	80 91 13 04 	lds	r24, 0x0413	; 0x800413 <s_rx_d+0x2>
    3228:	0f 91       	pop	r16
			{
				// do nothing
			}
		}
	}
}
    322a:	ef 90       	pop	r14
    322c:	cf 90       	pop	r12
			case TWI_SMART_LCD_CMD_SHOW_TCXO_PWM:
				isr_lcd_10mhz_ref_osc_show_pwm(data[2], data[3]);
			break;

			case TWI_SMART_LCD_CMD_SHOW_TCXO_VC:
				isr_lcd_10mhz_ref_osc_show_pv(data[2], data[3] | (data[4] << 8));
    322e:	fc cd       	rjmp	.-1032   	; 0x2e28 <isr_lcd_10mhz_ref_osc_show_pwm>
    3230:	60 91 14 04 	lds	r22, 0x0414	; 0x800414 <s_rx_d+0x3>
			break;

			case TWI_SMART_LCD_CMD_SHOW_SATS:
				isr_lcd_10mhz_ref_osc_show_sat_use(data[2], data[3], data[4]);
    3234:	70 91 15 04 	lds	r23, 0x0415	; 0x800415 <s_rx_d+0x4>
    3238:	80 91 13 04 	lds	r24, 0x0413	; 0x800413 <s_rx_d+0x2>
			{
				// do nothing
			}
		}
	}
}
    323c:	0f 91       	pop	r16
    323e:	ef 90       	pop	r14
    3240:	cf 90       	pop	r12
			case TWI_SMART_LCD_CMD_SHOW_TCXO_VC:
				isr_lcd_10mhz_ref_osc_show_pv(data[2], data[3] | (data[4] << 8));
			break;

			case TWI_SMART_LCD_CMD_SHOW_SATS:
				isr_lcd_10mhz_ref_osc_show_sat_use(data[2], data[3], data[4]);
    3242:	04 ce       	rjmp	.-1016   	; 0x2e4c <isr_lcd_10mhz_ref_osc_show_pv>
    3244:	40 91 15 04 	lds	r20, 0x0415	; 0x800415 <s_rx_d+0x4>
			break;

			case TWI_SMART_LCD_CMD_SHOW_DOP:
				isr_lcd_10mhz_ref_osc_show_sat_dop(data[2] | (data[3] << 8));
    3248:	60 91 14 04 	lds	r22, 0x0414	; 0x800414 <s_rx_d+0x3>
    324c:	80 91 13 04 	lds	r24, 0x0413	; 0x800413 <s_rx_d+0x2>
			{
				// do nothing
			}
		}
	}
}
    3250:	0f 91       	pop	r16
			case TWI_SMART_LCD_CMD_SHOW_SATS:
				isr_lcd_10mhz_ref_osc_show_sat_use(data[2], data[3], data[4]);
			break;

			case TWI_SMART_LCD_CMD_SHOW_DOP:
				isr_lcd_10mhz_ref_osc_show_sat_dop(data[2] | (data[3] << 8));
    3252:	ef 90       	pop	r14
    3254:	cf 90       	pop	r12
			break;

			case TWI_SMART_LCD_CMD_SHOW_POS_STATE:
				isr_lcd_10mhz_ref_osc_show_pos_state(data[2], data[3]);
    3256:	11 ce       	rjmp	.-990    	; 0x2e7a <isr_lcd_10mhz_ref_osc_show_sat_use>
    3258:	80 91 13 04 	lds	r24, 0x0413	; 0x800413 <s_rx_d+0x2>
    325c:	90 91 14 04 	lds	r25, 0x0414	; 0x800414 <s_rx_d+0x3>
			{
				// do nothing
			}
		}
	}
}
    3260:	0f 91       	pop	r16
    3262:	ef 90       	pop	r14
			case TWI_SMART_LCD_CMD_SHOW_DOP:
				isr_lcd_10mhz_ref_osc_show_sat_dop(data[2] | (data[3] << 8));
			break;

			case TWI_SMART_LCD_CMD_SHOW_POS_STATE:
				isr_lcd_10mhz_ref_osc_show_pos_state(data[2], data[3]);
    3264:	cf 90       	pop	r12
    3266:	21 ce       	rjmp	.-958    	; 0x2eaa <isr_lcd_10mhz_ref_osc_show_sat_dop>
			break;

			case TWI_SMART_LCD_CMD_SHOW_POS_LAT:
				isr_lcd_10mhz_ref_osc_show_pos_lat(data[2], data[3], data[4], data[5] | (data[6] << 8));
    3268:	60 91 14 04 	lds	r22, 0x0414	; 0x800414 <s_rx_d+0x3>
    326c:	80 91 13 04 	lds	r24, 0x0413	; 0x800413 <s_rx_d+0x2>
    3270:	0f 91       	pop	r16
    3272:	ef 90       	pop	r14
    3274:	cf 90       	pop	r12
    3276:	2a ce       	rjmp	.-940    	; 0x2ecc <isr_lcd_10mhz_ref_osc_show_pos_state>
    3278:	20 91 16 04 	lds	r18, 0x0416	; 0x800416 <s_rx_d+0x5>
			{
				// do nothing
			}
		}
	}
}
    327c:	30 91 17 04 	lds	r19, 0x0417	; 0x800417 <s_rx_d+0x6>
			case TWI_SMART_LCD_CMD_SHOW_POS_STATE:
				isr_lcd_10mhz_ref_osc_show_pos_state(data[2], data[3]);
			break;

			case TWI_SMART_LCD_CMD_SHOW_POS_LAT:
				isr_lcd_10mhz_ref_osc_show_pos_lat(data[2], data[3], data[4], data[5] | (data[6] << 8));
    3280:	40 91 15 04 	lds	r20, 0x0415	; 0x800415 <s_rx_d+0x4>
			break;

			case TWI_SMART_LCD_CMD_SHOW_POS_LON:
				isr_lcd_10mhz_ref_osc_show_pos_lon(data[2], data[3], data[4], data[5] | (data[6] << 8));
    3284:	60 91 14 04 	lds	r22, 0x0414	; 0x800414 <s_rx_d+0x3>
    3288:	80 91 13 04 	lds	r24, 0x0413	; 0x800413 <s_rx_d+0x2>
    328c:	0f 91       	pop	r16
    328e:	ef 90       	pop	r14
    3290:	cf 90       	pop	r12
    3292:	2e ce       	rjmp	.-932    	; 0x2ef0 <isr_lcd_10mhz_ref_osc_show_pos_lat>
			{
				// do nothing
			}
		}
	}
}
    3294:	20 91 16 04 	lds	r18, 0x0416	; 0x800416 <s_rx_d+0x5>
    3298:	30 91 17 04 	lds	r19, 0x0417	; 0x800417 <s_rx_d+0x6>
			case TWI_SMART_LCD_CMD_SHOW_POS_LAT:
				isr_lcd_10mhz_ref_osc_show_pos_lat(data[2], data[3], data[4], data[5] | (data[6] << 8));
			break;

			case TWI_SMART_LCD_CMD_SHOW_POS_LON:
				isr_lcd_10mhz_ref_osc_show_pos_lon(data[2], data[3], data[4], data[5] | (data[6] << 8));
    329c:	40 91 15 04 	lds	r20, 0x0415	; 0x800415 <s_rx_d+0x4>
			break;

			case TWI_SMART_LCD_CMD_SHOW_POS_HEIGHT:
				isr_lcd_10mhz_ref_osc_show_pos_height((data[2] | (data[3] << 8)), data[4]);
    32a0:	60 91 14 04 	lds	r22, 0x0414	; 0x800414 <s_rx_d+0x3>
    32a4:	80 91 13 04 	lds	r24, 0x0413	; 0x800413 <s_rx_d+0x2>
    32a8:	0f 91       	pop	r16
			{
				// do nothing
			}
		}
	}
}
    32aa:	ef 90       	pop	r14
    32ac:	cf 90       	pop	r12
    32ae:	43 ce       	rjmp	.-890    	; 0x2f36 <isr_lcd_10mhz_ref_osc_show_pos_lon>
			case TWI_SMART_LCD_CMD_SHOW_POS_LON:
				isr_lcd_10mhz_ref_osc_show_pos_lon(data[2], data[3], data[4], data[5] | (data[6] << 8));
			break;

			case TWI_SMART_LCD_CMD_SHOW_POS_HEIGHT:
				isr_lcd_10mhz_ref_osc_show_pos_height((data[2] | (data[3] << 8)), data[4]);
    32b0:	60 91 15 04 	lds	r22, 0x0415	; 0x800415 <s_rx_d+0x4>
				// do nothing for unsupported commands
			}
		}
	} else if (data[0] == TWI_SLAVE_ADDR_SMARTLCD) {
		/* unique command section for all modes */
		switch (cmd) {
    32b4:	80 91 13 04 	lds	r24, 0x0413	; 0x800413 <s_rx_d+0x2>
    32b8:	90 91 14 04 	lds	r25, 0x0414	; 0x800414 <s_rx_d+0x3>
				prepareBuf[0] = VERSION;
				s_twi_rx_prepare(1, prepareBuf);
			break;

			case TWI_SMART_LCD_CMD_SET_MODE:
				isr_lcd_set_mode(data[2]);
    32bc:	0f 91       	pop	r16
    32be:	ef 90       	pop	r14
			{
				// do nothing
			}
		}
	}
}
    32c0:	cf 90       	pop	r12
    32c2:	5c ce       	rjmp	.-840    	; 0x2f7c <isr_lcd_10mhz_ref_osc_show_pos_height>
    32c4:	e1 30       	cpi	r30, 0x01	; 1
				prepareBuf[0] = VERSION;
				s_twi_rx_prepare(1, prepareBuf);
			break;

			case TWI_SMART_LCD_CMD_SET_MODE:
				isr_lcd_set_mode(data[2]);
    32c6:	41 f0       	breq	.+16     	; 0x32d8 <s_isr_twi_rcvd_command_closed_form.isra.1.constprop.2+0x2b4>
    32c8:	e2 30       	cpi	r30, 0x02	; 2
}

static void s_twi_rx_prepare(uint8_t msgCnt, uint8_t msg[])
{
	if (msgCnt && msg) {
		if (!s_rx_lock) {
    32ca:	79 f4       	brne	.+30     	; 0x32ea <s_isr_twi_rcvd_command_closed_form.isra.1.constprop.2+0x2c6>
    32cc:	80 91 13 04 	lds	r24, 0x0413	; 0x800413 <s_rx_d+0x2>
    32d0:	0f 91       	pop	r16
			// Prepare master message buffer
			for (int idx = msgCnt; idx >= 0; --idx) {
				s_rx_d[idx] = msg[idx];
    32d2:	ef 90       	pop	r14
    32d4:	cf 90       	pop	r12
    32d6:	81 ce       	rjmp	.-766    	; 0x2fda <isr_lcd_set_mode>
    32d8:	80 91 19 04 	lds	r24, 0x0419	; 0x800419 <s_rx_lock>
			{
				// do nothing
			}
		}
	}
}
    32dc:	81 11       	cpse	r24, r1
    32de:	05 c0       	rjmp	.+10     	; 0x32ea <s_isr_twi_rcvd_command_closed_form.isra.1.constprop.2+0x2c6>
    32e0:	10 92 12 04 	sts	0x0412, r1	; 0x800412 <s_rx_d+0x1>
    32e4:	81 e1       	ldi	r24, 0x11	; 17
    32e6:	80 93 11 04 	sts	0x0411, r24	; 0x800411 <s_rx_d>
    32ea:	0f 91       	pop	r16
    32ec:	ef 90       	pop	r14
    32ee:	cf 90       	pop	r12
    32f0:	08 95       	ret

000032f2 <__vector_24__bottom>:


uint8_t __vector_24__bottom(uint8_t tws, uint8_t twd, uint8_t twcr_cur)
{
    32f2:	1f 93       	push	r17
    32f4:	cf 93       	push	r28
    32f6:	df 93       	push	r29
    32f8:	d6 2f       	mov	r29, r22
	static uint8_t pos_i	= 0;
	static uint8_t pos_o	= 0;
	static uint8_t cnt_i	= 0;
	static uint8_t cnt_o	= 0;
	uint8_t twcr_new = twcr_cur & 0b01000101;
    32fa:	c4 2f       	mov	r28, r20
    32fc:	c5 74       	andi	r28, 0x45	; 69

	switch(tws) {
    32fe:	88 36       	cpi	r24, 0x68	; 104
    3300:	09 f4       	brne	.+2      	; 0x3304 <__vector_24__bottom+0x12>
    3302:	90 c0       	rjmp	.+288    	; 0x3424 <__vector_24__bottom+0x132>
    3304:	08 f0       	brcs	.+2      	; 0x3308 <__vector_24__bottom+0x16>
    3306:	42 c0       	rjmp	.+132    	; 0x338c <__vector_24__bottom+0x9a>
    3308:	80 33       	cpi	r24, 0x30	; 48
    330a:	09 f4       	brne	.+2      	; 0x330e <__vector_24__bottom+0x1c>
    330c:	83 c0       	rjmp	.+262    	; 0x3414 <__vector_24__bottom+0x122>
    330e:	48 f5       	brcc	.+82     	; 0x3362 <__vector_24__bottom+0x70>
    3310:	80 31       	cpi	r24, 0x10	; 16
    3312:	09 f4       	brne	.+2      	; 0x3316 <__vector_24__bottom+0x24>
    3314:	6a c0       	rjmp	.+212    	; 0x33ea <__vector_24__bottom+0xf8>
    3316:	d8 f4       	brcc	.+54     	; 0x334e <__vector_24__bottom+0x5c>
    3318:	88 23       	and	r24, r24
    331a:	09 f4       	brne	.+2      	; 0x331e <__vector_24__bottom+0x2c>
    331c:	68 c1       	rjmp	.+720    	; 0x35ee <__vector_24__bottom+0x2fc>
    331e:	88 30       	cpi	r24, 0x08	; 8
    3320:	09 f0       	breq	.+2      	; 0x3324 <__vector_24__bottom+0x32>
    3322:	65 c1       	rjmp	.+714    	; 0x35ee <__vector_24__bottom+0x2fc>

	/* Master Transmitter Mode */

	case TWI_TWSR_START:						// Start condition transmitted
		s_tx_lock = 1;
		pos_o = 0;
    3324:	10 92 10 04 	sts	0x0410, r1	; 0x800410 <pos_o.2981>

		cnt_o = 2;								// TEST
    3328:	82 e0       	ldi	r24, 0x02	; 2
    332a:	80 93 0f 04 	sts	0x040F, r24	; 0x80040f <cnt_o.2983>
		s_tx_d[0] = (0x12 << TWD1) | (0b0 << TWD0);	// TEST
    332e:	84 e2       	ldi	r24, 0x24	; 36
    3330:	80 93 1a 04 	sts	0x041A, r24	; 0x80041a <s_tx_d>
		s_tx_d[1] = 0x34;						// TEST
    3334:	84 e3       	ldi	r24, 0x34	; 52
    3336:	80 93 1b 04 	sts	0x041B, r24	; 0x80041b <s_tx_d+0x1>
		s_tx_d[2] = 0x56;						// TEST
    333a:	86 e5       	ldi	r24, 0x56	; 86
    333c:	80 93 1c 04 	sts	0x041C, r24	; 0x80041c <s_tx_d+0x2>
		s_tx_d[3] = 0x78;						// TEST
    3340:	88 e7       	ldi	r24, 0x78	; 120
    3342:	80 93 1d 04 	sts	0x041D, r24	; 0x80041d <s_tx_d+0x3>
		s_tx_d[4] = 0x9a;						// TEST
    3346:	8a e9       	ldi	r24, 0x9A	; 154
    3348:	80 93 1e 04 	sts	0x041E, r24	; 0x80041e <s_tx_d+0x4>
    334c:	4e c0       	rjmp	.+156    	; 0x33ea <__vector_24__bottom+0xf8>
	static uint8_t pos_o	= 0;
	static uint8_t cnt_i	= 0;
	static uint8_t cnt_o	= 0;
	uint8_t twcr_new = twcr_cur & 0b01000101;

	switch(tws) {
    334e:	80 32       	cpi	r24, 0x20	; 32
    3350:	09 f4       	brne	.+2      	; 0x3354 <__vector_24__bottom+0x62>
    3352:	61 c0       	rjmp	.+194    	; 0x3416 <__vector_24__bottom+0x124>
    3354:	88 32       	cpi	r24, 0x28	; 40
    3356:	09 f4       	brne	.+2      	; 0x335a <__vector_24__bottom+0x68>
    3358:	4c c0       	rjmp	.+152    	; 0x33f2 <__vector_24__bottom+0x100>
    335a:	88 31       	cpi	r24, 0x18	; 24
    335c:	09 f0       	breq	.+2      	; 0x3360 <__vector_24__bottom+0x6e>
    335e:	47 c1       	rjmp	.+654    	; 0x35ee <__vector_24__bottom+0x2fc>
    3360:	45 c0       	rjmp	.+138    	; 0x33ec <__vector_24__bottom+0xfa>
    3362:	88 34       	cpi	r24, 0x48	; 72
    3364:	09 f4       	brne	.+2      	; 0x3368 <__vector_24__bottom+0x76>
    3366:	5b c0       	rjmp	.+182    	; 0x341e <__vector_24__bottom+0x12c>
    3368:	38 f4       	brcc	.+14     	; 0x3378 <__vector_24__bottom+0x86>
    336a:	88 33       	cpi	r24, 0x38	; 56
    336c:	09 f4       	brne	.+2      	; 0x3370 <__vector_24__bottom+0x7e>
    336e:	55 c0       	rjmp	.+170    	; 0x341a <__vector_24__bottom+0x128>
    3370:	80 34       	cpi	r24, 0x40	; 64
    3372:	09 f4       	brne	.+2      	; 0x3376 <__vector_24__bottom+0x84>
    3374:	54 c0       	rjmp	.+168    	; 0x341e <__vector_24__bottom+0x12c>
    3376:	3b c1       	rjmp	.+630    	; 0x35ee <__vector_24__bottom+0x2fc>
    3378:	88 35       	cpi	r24, 0x58	; 88
    337a:	09 f4       	brne	.+2      	; 0x337e <__vector_24__bottom+0x8c>
    337c:	50 c0       	rjmp	.+160    	; 0x341e <__vector_24__bottom+0x12c>
    337e:	80 36       	cpi	r24, 0x60	; 96
    3380:	09 f4       	brne	.+2      	; 0x3384 <__vector_24__bottom+0x92>
    3382:	4f c0       	rjmp	.+158    	; 0x3422 <__vector_24__bottom+0x130>
    3384:	80 35       	cpi	r24, 0x50	; 80
    3386:	09 f0       	breq	.+2      	; 0x338a <__vector_24__bottom+0x98>
    3388:	32 c1       	rjmp	.+612    	; 0x35ee <__vector_24__bottom+0x2fc>
    338a:	49 c0       	rjmp	.+146    	; 0x341e <__vector_24__bottom+0x12c>
    338c:	80 3a       	cpi	r24, 0xA0	; 160
    338e:	09 f4       	brne	.+2      	; 0x3392 <__vector_24__bottom+0xa0>
    3390:	f7 c0       	rjmp	.+494    	; 0x3580 <__vector_24__bottom+0x28e>
    3392:	b0 f4       	brcc	.+44     	; 0x33c0 <__vector_24__bottom+0xce>
    3394:	80 38       	cpi	r24, 0x80	; 128
    3396:	09 f4       	brne	.+2      	; 0x339a <__vector_24__bottom+0xa8>
    3398:	5f c0       	rjmp	.+190    	; 0x3458 <__vector_24__bottom+0x166>
    339a:	38 f4       	brcc	.+14     	; 0x33aa <__vector_24__bottom+0xb8>
    339c:	80 37       	cpi	r24, 0x70	; 112
    339e:	09 f4       	brne	.+2      	; 0x33a2 <__vector_24__bottom+0xb0>
    33a0:	50 c0       	rjmp	.+160    	; 0x3442 <__vector_24__bottom+0x150>
    33a2:	88 37       	cpi	r24, 0x78	; 120
    33a4:	09 f4       	brne	.+2      	; 0x33a8 <__vector_24__bottom+0xb6>
    33a6:	4e c0       	rjmp	.+156    	; 0x3444 <__vector_24__bottom+0x152>
    33a8:	22 c1       	rjmp	.+580    	; 0x35ee <__vector_24__bottom+0x2fc>
    33aa:	80 39       	cpi	r24, 0x90	; 144
    33ac:	09 f4       	brne	.+2      	; 0x33b0 <__vector_24__bottom+0xbe>
    33ae:	55 c0       	rjmp	.+170    	; 0x345a <__vector_24__bottom+0x168>
    33b0:	88 39       	cpi	r24, 0x98	; 152
    33b2:	09 f4       	brne	.+2      	; 0x33b6 <__vector_24__bottom+0xc4>
    33b4:	d1 c0       	rjmp	.+418    	; 0x3558 <__vector_24__bottom+0x266>
    33b6:	88 38       	cpi	r24, 0x88	; 136
    33b8:	09 f0       	breq	.+2      	; 0x33bc <__vector_24__bottom+0xca>
    33ba:	19 c1       	rjmp	.+562    	; 0x35ee <__vector_24__bottom+0x2fc>
			}
		}
	break;

	case TWI_TWSR_S_SLAW_MYADDR_DATA_NACK:		// NACK after last data byte sent
		nop();
    33bc:	00 00       	nop
    33be:	cc c0       	rjmp	.+408    	; 0x3558 <__vector_24__bottom+0x266>
	static uint8_t pos_o	= 0;
	static uint8_t cnt_i	= 0;
	static uint8_t cnt_o	= 0;
	uint8_t twcr_new = twcr_cur & 0b01000101;

	switch(tws) {
    33c0:	88 3b       	cpi	r24, 0xB8	; 184
    33c2:	09 f4       	brne	.+2      	; 0x33c6 <__vector_24__bottom+0xd4>
    33c4:	f7 c0       	rjmp	.+494    	; 0x35b4 <__vector_24__bottom+0x2c2>
    33c6:	38 f4       	brcc	.+14     	; 0x33d6 <__vector_24__bottom+0xe4>
    33c8:	88 3a       	cpi	r24, 0xA8	; 168
    33ca:	09 f4       	brne	.+2      	; 0x33ce <__vector_24__bottom+0xdc>
    33cc:	e4 c0       	rjmp	.+456    	; 0x3596 <__vector_24__bottom+0x2a4>
    33ce:	80 3b       	cpi	r24, 0xB0	; 176
    33d0:	09 f4       	brne	.+2      	; 0x33d4 <__vector_24__bottom+0xe2>
    33d2:	e2 c0       	rjmp	.+452    	; 0x3598 <__vector_24__bottom+0x2a6>
    33d4:	0c c1       	rjmp	.+536    	; 0x35ee <__vector_24__bottom+0x2fc>
    33d6:	88 3c       	cpi	r24, 0xC8	; 200
    33d8:	09 f4       	brne	.+2      	; 0x33dc <__vector_24__bottom+0xea>
    33da:	06 c1       	rjmp	.+524    	; 0x35e8 <__vector_24__bottom+0x2f6>
    33dc:	88 3f       	cpi	r24, 0xF8	; 248
    33de:	09 f4       	brne	.+2      	; 0x33e2 <__vector_24__bottom+0xf0>
    33e0:	06 c1       	rjmp	.+524    	; 0x35ee <__vector_24__bottom+0x2fc>
    33e2:	80 3c       	cpi	r24, 0xC0	; 192
    33e4:	09 f0       	breq	.+2      	; 0x33e8 <__vector_24__bottom+0xf6>
    33e6:	03 c1       	rjmp	.+518    	; 0x35ee <__vector_24__bottom+0x2fc>
    33e8:	ff c0       	rjmp	.+510    	; 0x35e8 <__vector_24__bottom+0x2f6>
		s_tx_d[2] = 0x56;						// TEST
		s_tx_d[3] = 0x78;						// TEST
		s_tx_d[4] = 0x9a;						// TEST
		// fall-through.
	case TWI_TWSR_REPEATEDSTART:				// Repeated start condition transmitted
		nop();
    33ea:	00 00       	nop
		// fall-through.
	case TWI_TWSR_M_SLAW_ADDR_ACK:				// SLA+W transmitted and ACK received
		TWDR = s_tx_d[pos_o++];
    33ec:	e0 91 10 04 	lds	r30, 0x0410	; 0x800410 <pos_o.2981>
    33f0:	06 c0       	rjmp	.+12     	; 0x33fe <__vector_24__bottom+0x10c>
	case TWI_TWSR_M_SLAW_ADDR_NACK:				// SLA+W transmitted and NACK received
		twcr_new |= _BV(TWSTO);					// Send STOP
	break;

	case TWI_TWSR_M_SLAW_DATA_ACK:				// Data byte sent and ACK received
		if (pos_o < cnt_o) {
    33f2:	e0 91 10 04 	lds	r30, 0x0410	; 0x800410 <pos_o.2981>
    33f6:	80 91 0f 04 	lds	r24, 0x040F	; 0x80040f <cnt_o.2983>
    33fa:	e8 17       	cp	r30, r24
    33fc:	58 f4       	brcc	.+22     	; 0x3414 <__vector_24__bottom+0x122>
			TWDR = s_tx_d[pos_o++];				// Send new data byte
    33fe:	81 e0       	ldi	r24, 0x01	; 1
    3400:	8e 0f       	add	r24, r30
    3402:	80 93 10 04 	sts	0x0410, r24	; 0x800410 <pos_o.2981>
    3406:	f0 e0       	ldi	r31, 0x00	; 0
    3408:	e6 5e       	subi	r30, 0xE6	; 230
    340a:	fb 4f       	sbci	r31, 0xFB	; 251
    340c:	80 81       	ld	r24, Z
    340e:	80 93 bb 00 	sts	0x00BB, r24	; 0x8000bb <__TEXT_REGION_LENGTH__+0x7e00bb>
		}
	break;

	case TWI_TWSR_M_SLAW_DATA_NACK:				// Data byte sent and NACK received
		s_tx_lock = 0;
		s_twi_tx_done();						// Message failure
    3412:	f1 c0       	rjmp	.+482    	; 0x35f6 <__vector_24__bottom+0x304>
		twcr_new |= _BV(TWSTO);					// Send STOP - due to an error or slave not ready situation
    3414:	f8 dd       	rcall	.-1040   	; 0x3006 <s_twi_tx_done>
	break;
    3416:	c0 61       	ori	r28, 0x10	; 16

	case TWI_TWSR_M_SLAW_ARBIT_LOST:			// Arbitration lost
		twcr_new |= _BV(TWSTA);					// Send START (again)
    3418:	ee c0       	rjmp	.+476    	; 0x35f6 <__vector_24__bottom+0x304>
	break;
    341a:	c0 62       	ori	r28, 0x20	; 32
	case TWI_TWSR_M_SLAR_DATA_ACK:
		nop();
	break;

	case TWI_TWSR_M_SLAR_DATA_NACK:
		nop();
    341c:	ec c0       	rjmp	.+472    	; 0x35f6 <__vector_24__bottom+0x304>
	break;
    341e:	00 00       	nop


	/* Slave Receiver Mode */

	case TWI_TWSR_S_SLAW_MYADDR_RECEIVED:		// SLA+W received and ACK returned
		nop();
    3420:	ea c0       	rjmp	.+468    	; 0x35f6 <__vector_24__bottom+0x304>
		// fall-through.
	case TWI_TWSR_S_SLAW_MYADDR_ARBIT_LOST:
		s_rx_lock = 1;
    3422:	00 00       	nop
    3424:	11 e0       	ldi	r17, 0x01	; 1
    3426:	10 93 19 04 	sts	0x0419, r17	; 0x800419 <s_rx_lock>
		mem_set(s_rx_d, 8, 0x00);
    342a:	40 e0       	ldi	r20, 0x00	; 0
    342c:	68 e0       	ldi	r22, 0x08	; 8
    342e:	81 e1       	ldi	r24, 0x11	; 17
    3430:	94 e0       	ldi	r25, 0x04	; 4
		s_rx_d[0] = twd >> 1;					// [0]=Target address (== MYADDR)
    3432:	30 d1       	rcall	.+608    	; 0x3694 <mem_set>
    3434:	d6 95       	lsr	r29
    3436:	d0 93 11 04 	sts	0x0411, r29	; 0x800411 <s_rx_d>
		pos_i = 1;								// Starting of reception
    343a:	10 93 0e 04 	sts	0x040E, r17	; 0x80040e <pos_i.2980>
		twcr_new |= _BV(TWEA);					// Send ACK
	break;
    343e:	c0 64       	ori	r28, 0x40	; 64

	case TWI_TWSR_S_SLAW_OMNIADDR_RECEIVED:		// GCA received and ACK sent
		nop();
    3440:	da c0       	rjmp	.+436    	; 0x35f6 <__vector_24__bottom+0x304>
		// fall-through.
	case TWI_TWSR_S_SLAW_OMNIADDR_ARBIT_LOST:
		s_rx_lock = 1;
    3442:	00 00       	nop
    3444:	81 e0       	ldi	r24, 0x01	; 1
    3446:	80 93 19 04 	sts	0x0419, r24	; 0x800419 <s_rx_lock>
		s_rx_d[0] = twd >> 1;					// GCA
    344a:	d6 95       	lsr	r29
    344c:	d0 93 11 04 	sts	0x0411, r29	; 0x800411 <s_rx_d>
		pos_i = 1;								// Starting of reception
    3450:	80 93 0e 04 	sts	0x040E, r24	; 0x80040e <pos_i.2980>
		twcr_new |= _BV(TWEA);					// Send after next coming data byte ACK
	break;
    3454:	c0 64       	ori	r28, 0x40	; 64

	case TWI_TWSR_S_SLAW_MYADDR_DATA_ACK:		// Data after SLA+W received
		nop();
    3456:	cf c0       	rjmp	.+414    	; 0x35f6 <__vector_24__bottom+0x304>
		// fall-through.
	case TWI_TWSR_S_SLAW_OMNIADDR_DATA_ACK:
		if (cnt_i != 0b1111) {					// Closed parameter form
    3458:	00 00       	nop
    345a:	80 91 0d 04 	lds	r24, 0x040D	; 0x80040d <cnt_i.2982>
    345e:	8f 30       	cpi	r24, 0x0F	; 15
    3460:	09 f4       	brne	.+2      	; 0x3464 <__vector_24__bottom+0x172>
			if (pos_i <= 0b1110) {
    3462:	73 c0       	rjmp	.+230    	; 0x354a <__vector_24__bottom+0x258>
    3464:	90 91 0e 04 	lds	r25, 0x040E	; 0x80040e <pos_i.2980>
    3468:	9f 30       	cpi	r25, 0x0F	; 15
    346a:	08 f0       	brcs	.+2      	; 0x346e <__vector_24__bottom+0x17c>
				s_rx_d[pos_i] = twd;			// [1]=cmd, [2..]=parameters
    346c:	72 c0       	rjmp	.+228    	; 0x3552 <__vector_24__bottom+0x260>
    346e:	e9 2f       	mov	r30, r25
    3470:	f0 e0       	ldi	r31, 0x00	; 0
    3472:	ef 5e       	subi	r30, 0xEF	; 239
    3474:	fb 4f       	sbci	r31, 0xFB	; 251
			}
			if (pos_i == 1) {
    3476:	d0 83       	st	Z, r29
    3478:	91 30       	cpi	r25, 0x01	; 1
    347a:	09 f0       	breq	.+2      	; 0x347e <__vector_24__bottom+0x18c>
				/* Load receive counter */
				if (s_rx_d[0] == TWI_SLAVE_ADDR_SMARTLCD) {
    347c:	5c c0       	rjmp	.+184    	; 0x3536 <__vector_24__bottom+0x244>
    347e:	80 91 11 04 	lds	r24, 0x0411	; 0x800411 <s_rx_d>
    3482:	82 32       	cpi	r24, 0x22	; 34
    3484:	09 f0       	breq	.+2      	; 0x3488 <__vector_24__bottom+0x196>
					cnt_i = 0;
    3486:	59 c0       	rjmp	.+178    	; 0x353a <__vector_24__bottom+0x248>
    3488:	10 92 0d 04 	sts	0x040D, r1	; 0x80040d <cnt_i.2982>
					cnt_o = 0;
    348c:	10 92 0f 04 	sts	0x040F, r1	; 0x80040f <cnt_o.2983>

					switch (s_rx_d[1]) {
    3490:	80 91 12 04 	lds	r24, 0x0412	; 0x800412 <s_rx_d+0x1>
    3494:	80 38       	cpi	r24, 0x80	; 128
    3496:	09 f4       	brne	.+2      	; 0x349a <__vector_24__bottom+0x1a8>
    3498:	4a c0       	rjmp	.+148    	; 0x352e <__vector_24__bottom+0x23c>
    349a:	c0 f4       	brcc	.+48     	; 0x34cc <__vector_24__bottom+0x1da>
    349c:	80 32       	cpi	r24, 0x20	; 32
    349e:	d9 f1       	breq	.+118    	; 0x3516 <__vector_24__bottom+0x224>
    34a0:	40 f4       	brcc	.+16     	; 0x34b2 <__vector_24__bottom+0x1c0>
    34a2:	81 30       	cpi	r24, 0x01	; 1
    34a4:	79 f1       	breq	.+94     	; 0x3504 <__vector_24__bottom+0x212>
    34a6:	50 f1       	brcs	.+84     	; 0x34fc <__vector_24__bottom+0x20a>
    34a8:	82 30       	cpi	r24, 0x02	; 2
    34aa:	89 f1       	breq	.+98     	; 0x350e <__vector_24__bottom+0x21c>
    34ac:	84 31       	cpi	r24, 0x14	; 20
    34ae:	79 f1       	breq	.+94     	; 0x350e <__vector_24__bottom+0x21c>
    34b0:	44 c0       	rjmp	.+136    	; 0x353a <__vector_24__bottom+0x248>
    34b2:	86 33       	cpi	r24, 0x36	; 54
    34b4:	81 f1       	breq	.+96     	; 0x3516 <__vector_24__bottom+0x224>
    34b6:	28 f4       	brcc	.+10     	; 0x34c2 <__vector_24__bottom+0x1d0>
    34b8:	82 33       	cpi	r24, 0x32	; 50
    34ba:	69 f1       	breq	.+90     	; 0x3516 <__vector_24__bottom+0x224>
    34bc:	84 33       	cpi	r24, 0x34	; 52
    34be:	59 f1       	breq	.+86     	; 0x3516 <__vector_24__bottom+0x224>
    34c0:	3c c0       	rjmp	.+120    	; 0x353a <__vector_24__bottom+0x248>
    34c2:	88 33       	cpi	r24, 0x38	; 56
    34c4:	21 f1       	breq	.+72     	; 0x350e <__vector_24__bottom+0x21c>
    34c6:	8a 33       	cpi	r24, 0x3A	; 58
    34c8:	11 f1       	breq	.+68     	; 0x350e <__vector_24__bottom+0x21c>
    34ca:	37 c0       	rjmp	.+110    	; 0x353a <__vector_24__bottom+0x248>
    34cc:	88 38       	cpi	r24, 0x88	; 136
    34ce:	39 f1       	breq	.+78     	; 0x351e <__vector_24__bottom+0x22c>
    34d0:	68 f4       	brcc	.+26     	; 0x34ec <__vector_24__bottom+0x1fa>
    34d2:	83 38       	cpi	r24, 0x83	; 131
    34d4:	41 f1       	breq	.+80     	; 0x3526 <__vector_24__bottom+0x234>
    34d6:	28 f4       	brcc	.+10     	; 0x34e2 <__vector_24__bottom+0x1f0>
    34d8:	81 38       	cpi	r24, 0x81	; 129
    34da:	29 f1       	breq	.+74     	; 0x3526 <__vector_24__bottom+0x234>
    34dc:	82 38       	cpi	r24, 0x82	; 130
    34de:	f9 f0       	breq	.+62     	; 0x351e <__vector_24__bottom+0x22c>
    34e0:	2c c0       	rjmp	.+88     	; 0x353a <__vector_24__bottom+0x248>
    34e2:	84 38       	cpi	r24, 0x84	; 132
    34e4:	c1 f0       	breq	.+48     	; 0x3516 <__vector_24__bottom+0x224>
    34e6:	85 38       	cpi	r24, 0x85	; 133
    34e8:	d1 f0       	breq	.+52     	; 0x351e <__vector_24__bottom+0x22c>
    34ea:	27 c0       	rjmp	.+78     	; 0x353a <__vector_24__bottom+0x248>
    34ec:	8d 38       	cpi	r24, 0x8D	; 141
    34ee:	18 f4       	brcc	.+6      	; 0x34f6 <__vector_24__bottom+0x204>
    34f0:	8b 38       	cpi	r24, 0x8B	; 139
    34f2:	88 f0       	brcs	.+34     	; 0x3516 <__vector_24__bottom+0x224>
    34f4:	1c c0       	rjmp	.+56     	; 0x352e <__vector_24__bottom+0x23c>
    34f6:	8d 38       	cpi	r24, 0x8D	; 141
    34f8:	91 f0       	breq	.+36     	; 0x351e <__vector_24__bottom+0x22c>
						case TWI_SMART_LCD_CMD_NOOP:
							cnt_i = 1;
    34fa:	1f c0       	rjmp	.+62     	; 0x353a <__vector_24__bottom+0x248>
    34fc:	81 e0       	ldi	r24, 0x01	; 1
    34fe:	80 93 0d 04 	sts	0x040D, r24	; 0x80040d <cnt_i.2982>
						break;

						case TWI_SMART_LCD_CMD_GET_VER:
							cnt_i = 1;
    3502:	1b c0       	rjmp	.+54     	; 0x353a <__vector_24__bottom+0x248>
    3504:	90 93 0d 04 	sts	0x040D, r25	; 0x80040d <cnt_i.2982>
							cnt_o = 1;
    3508:	90 93 0f 04 	sts	0x040F, r25	; 0x80040f <cnt_o.2983>

						case TWI_SMART_LCD_CMD_SET_MODE:
						case TWI_SMART_LCD_CMD_SET_PIXEL_TYPE:
						case TWI_SMART_LCD_CMD_DRAW_CIRC:
						case TWI_SMART_LCD_CMD_DRAW_FILLED_CIRC:
							cnt_i = 2;
    350c:	16 c0       	rjmp	.+44     	; 0x353a <__vector_24__bottom+0x248>
    350e:	82 e0       	ldi	r24, 0x02	; 2
    3510:	80 93 0d 04 	sts	0x040D, r24	; 0x80040d <cnt_i.2982>
						case TWI_SMART_LCD_CMD_DRAW_RECT:
						case TWI_SMART_LCD_CMD_DRAW_FILLED_RECT:
						case TWI_SMART_LCD_CMD_SHOW_DOP:
						case TWI_SMART_LCD_CMD_SHOW_POS_STATE:
						case TWI_SMART_LCD_CMD_SHOW_TCXO_PWM:
							cnt_i = 3;
    3514:	12 c0       	rjmp	.+36     	; 0x353a <__vector_24__bottom+0x248>
    3516:	83 e0       	ldi	r24, 0x03	; 3
    3518:	80 93 0d 04 	sts	0x040D, r24	; 0x80040d <cnt_i.2982>

						case TWI_SMART_LCD_CMD_SHOW_HR_MIN_SEC:
						case TWI_SMART_LCD_CMD_SHOW_POS_HEIGHT:
						case TWI_SMART_LCD_CMD_SHOW_SATS:
						case TWI_SMART_LCD_CMD_SHOW_TCXO_VC:
							cnt_i = 4;
    351c:	0e c0       	rjmp	.+28     	; 0x353a <__vector_24__bottom+0x248>
    351e:	84 e0       	ldi	r24, 0x04	; 4
    3520:	80 93 0d 04 	sts	0x040D, r24	; 0x80040d <cnt_i.2982>
						break;

						case TWI_SMART_LCD_CMD_SHOW_PPB:
						case TWI_SMART_LCD_CMD_SHOW_YEAR_MON_DAY:
							cnt_i = 5;
    3524:	0a c0       	rjmp	.+20     	; 0x353a <__vector_24__bottom+0x248>
    3526:	85 e0       	ldi	r24, 0x05	; 5
    3528:	80 93 0d 04 	sts	0x040D, r24	; 0x80040d <cnt_i.2982>
						break;

						case TWI_SMART_LCD_CMD_SHOW_CLK_STATE:
						case TWI_SMART_LCD_CMD_SHOW_POS_LAT:
						case TWI_SMART_LCD_CMD_SHOW_POS_LON:
							cnt_i = 6;
    352c:	06 c0       	rjmp	.+12     	; 0x353a <__vector_24__bottom+0x248>
    352e:	86 e0       	ldi	r24, 0x06	; 6
    3530:	80 93 0d 04 	sts	0x040D, r24	; 0x80040d <cnt_i.2982>
						break;
					}
				}
			}

			if (pos_i < 0b1110) {
    3534:	02 c0       	rjmp	.+4      	; 0x353a <__vector_24__bottom+0x248>
    3536:	9e 30       	cpi	r25, 0x0E	; 14
				if (++pos_i <= cnt_i) {
    3538:	60 f4       	brcc	.+24     	; 0x3552 <__vector_24__bottom+0x260>
    353a:	9f 5f       	subi	r25, 0xFF	; 255
    353c:	90 93 0e 04 	sts	0x040E, r25	; 0x80040e <pos_i.2980>
    3540:	80 91 0d 04 	lds	r24, 0x040D	; 0x80040d <cnt_i.2982>
    3544:	89 17       	cp	r24, r25
    3546:	28 f0       	brcs	.+10     	; 0x3552 <__vector_24__bottom+0x260>
			} else {
				twcr_new &= ~_BV(TWEA);			// Send NACK
			}

		} else {								// Open parameter form
			s_rx_d[2] = twd;
    3548:	24 c0       	rjmp	.+72     	; 0x3592 <__vector_24__bottom+0x2a0>
    354a:	d0 93 13 04 	sts	0x0413, r29	; 0x800413 <s_rx_d+0x2>
			if (!s_isr_twi_rcvd_command_open_form(s_rx_d, ++pos_i)) {
				twcr_new |= _BV(TWEA);			// Send ACK
			} else {
				pos_i = 0;
    354e:	10 92 0e 04 	sts	0x040E, r1	; 0x80040e <pos_i.2980>
				twcr_new &= ~_BV(TWEA);			// Send NACK
    3552:	c4 2f       	mov	r28, r20
    3554:	c5 70       	andi	r28, 0x05	; 5

	case TWI_TWSR_S_SLAW_MYADDR_DATA_NACK:		// NACK after last data byte sent
		nop();
		// fall-through.
	case TWI_TWSR_S_SLAW_OMNIADDR_DATA_NACK:
		s_rx_lock = 0;
    3556:	4f c0       	rjmp	.+158    	; 0x35f6 <__vector_24__bottom+0x304>
    3558:	10 92 19 04 	sts	0x0419, r1	; 0x800419 <s_rx_lock>
		if (cnt_i != 0b1111) {
    355c:	80 91 0d 04 	lds	r24, 0x040D	; 0x80040d <cnt_i.2982>
			s_isr_twi_rcvd_command_closed_form(s_rx_d, pos_i);	// Call interpreter for closed form of parameters
    3560:	8f 30       	cpi	r24, 0x0F	; 15
    3562:	09 f0       	breq	.+2      	; 0x3566 <__vector_24__bottom+0x274>
		} else {
			s_isr_twi_rcvd_command_open_form(s_rx_d, ++pos_i);	// Call interpreter for open form of parameters
		}
		pos_i = 0;
    3564:	5f dd       	rcall	.-1346   	; 0x3024 <s_isr_twi_rcvd_command_closed_form.isra.1.constprop.2>
    3566:	10 92 0e 04 	sts	0x040E, r1	; 0x80040e <pos_i.2980>
		cnt_i = 0;
    356a:	10 92 0d 04 	sts	0x040D, r1	; 0x80040d <cnt_i.2982>
		mem_set(s_rx_d, 8, 0x00);
    356e:	40 e0       	ldi	r20, 0x00	; 0
    3570:	68 e0       	ldi	r22, 0x08	; 8
    3572:	81 e1       	ldi	r24, 0x11	; 17
    3574:	94 e0       	ldi	r25, 0x04	; 4
		s_rx_lock = 0;
    3576:	8e d0       	rcall	.+284    	; 0x3694 <mem_set>
    3578:	10 92 19 04 	sts	0x0419, r1	; 0x800419 <s_rx_lock>
		twcr_new |= _BV(TWEA);					// TWI goes to unaddressed, be active again
	break;
    357c:	c0 64       	ori	r28, 0x40	; 64

	case TWI_TWSR_S_SLAW_STOP_REPEATEDSTART_RECEIVED:	// STOP or RESTART received while still addressed as slave
		s_rx_lock = 0;
    357e:	3b c0       	rjmp	.+118    	; 0x35f6 <__vector_24__bottom+0x304>
		if (cnt_i != 0b1111) {
    3580:	10 92 19 04 	sts	0x0419, r1	; 0x800419 <s_rx_lock>
    3584:	80 91 0d 04 	lds	r24, 0x040D	; 0x80040d <cnt_i.2982>
			s_isr_twi_rcvd_command_closed_form(s_rx_d, pos_i);	// Call interpreter for closed form of parameters
    3588:	8f 30       	cpi	r24, 0x0F	; 15
		} else {
			s_isr_twi_rcvd_command_open_form(s_rx_d, ++pos_i);	// Call interpreter for open form of parameters
		}
		pos_i = 0;
    358a:	09 f0       	breq	.+2      	; 0x358e <__vector_24__bottom+0x29c>
    358c:	4b dd       	rcall	.-1386   	; 0x3024 <s_isr_twi_rcvd_command_closed_form.isra.1.constprop.2>
		twcr_new |= _BV(TWEA);					// TWI goes to unaddressed, be active again
    358e:	10 92 0e 04 	sts	0x040E, r1	; 0x80040e <pos_i.2980>


	/* Slave Transmitter Mode */

	case TWI_TWSR_S_SLAR_MYADDR_DATA_ACK:		// SLA+R received and ACK has been returned
		nop();
    3592:	c0 64       	ori	r28, 0x40	; 64
		// fall-through.
	case TWI_TWSR_S_SLAR_MYADDR_ARBIT_LOST:
		s_rx_lock = 1;
    3594:	30 c0       	rjmp	.+96     	; 0x35f6 <__vector_24__bottom+0x304>
    3596:	00 00       	nop
    3598:	81 e0       	ldi	r24, 0x01	; 1
		pos_o = 0;
    359a:	80 93 19 04 	sts	0x0419, r24	; 0x800419 <s_rx_lock>
		TWDR = cnt_o > pos_o ?  s_rx_d[pos_o++] : 0;
    359e:	10 92 10 04 	sts	0x0410, r1	; 0x800410 <pos_o.2981>
    35a2:	90 91 0f 04 	lds	r25, 0x040F	; 0x80040f <cnt_o.2983>
    35a6:	99 23       	and	r25, r25
    35a8:	a1 f0       	breq	.+40     	; 0x35d2 <__vector_24__bottom+0x2e0>
    35aa:	80 93 10 04 	sts	0x0410, r24	; 0x800410 <pos_o.2981>
    35ae:	80 91 11 04 	lds	r24, 0x0411	; 0x800411 <s_rx_d>
			twcr_new &= ~_BV(TWEA);				// No more data to send NACK
		}
	break;

	case TWI_TWSR_S_SLAR_OMNIADDR_DATA_ACK:		// Data sent and ACK has been returned
		TWDR = cnt_o > pos_o ?  s_rx_d[pos_o++] : 0;
    35b2:	10 c0       	rjmp	.+32     	; 0x35d4 <__vector_24__bottom+0x2e2>
    35b4:	e0 91 10 04 	lds	r30, 0x0410	; 0x800410 <pos_o.2981>
    35b8:	80 91 0f 04 	lds	r24, 0x040F	; 0x80040f <cnt_o.2983>
    35bc:	e8 17       	cp	r30, r24
    35be:	48 f4       	brcc	.+18     	; 0x35d2 <__vector_24__bottom+0x2e0>
    35c0:	81 e0       	ldi	r24, 0x01	; 1
    35c2:	8e 0f       	add	r24, r30
    35c4:	80 93 10 04 	sts	0x0410, r24	; 0x800410 <pos_o.2981>
    35c8:	f0 e0       	ldi	r31, 0x00	; 0
    35ca:	ef 5e       	subi	r30, 0xEF	; 239
    35cc:	fb 4f       	sbci	r31, 0xFB	; 251
    35ce:	80 81       	ld	r24, Z
    35d0:	01 c0       	rjmp	.+2      	; 0x35d4 <__vector_24__bottom+0x2e2>
    35d2:	80 e0       	ldi	r24, 0x00	; 0
		if (cnt_o > pos_o) {
    35d4:	80 93 bb 00 	sts	0x00BB, r24	; 0x8000bb <__TEXT_REGION_LENGTH__+0x7e00bb>
    35d8:	90 91 0f 04 	lds	r25, 0x040F	; 0x80040f <cnt_o.2983>
    35dc:	80 91 10 04 	lds	r24, 0x0410	; 0x800410 <pos_o.2981>
    35e0:	89 17       	cp	r24, r25
    35e2:	08 f0       	brcs	.+2      	; 0x35e6 <__vector_24__bottom+0x2f4>
		twcr_new |= _BV(TWEA);					// TWI goes to unaddressed, be active again
	break;

	case TWI_TWSR_S_SLAR_MYADDR_LASTDATA_ACK:	// Last data sent and ACK has been returned
		/* message transmitted successfully in slave mode */
		s_rx_lock = 0;
    35e4:	b6 cf       	rjmp	.-148    	; 0x3552 <__vector_24__bottom+0x260>
    35e6:	d5 cf       	rjmp	.-86     	; 0x3592 <__vector_24__bottom+0x2a0>
    35e8:	10 92 19 04 	sts	0x0419, r1	; 0x800419 <s_rx_lock>
	break;

	default:
		nop();
		s_tx_lock = 0;
		s_rx_lock = 0;
    35ec:	d2 cf       	rjmp	.-92     	; 0x3592 <__vector_24__bottom+0x2a0>
    35ee:	00 00       	nop
		twcr_new |= _BV(TWSTO) | _BV(TWEA);		// TWI goes to unaddressed, be active again
    35f0:	10 92 19 04 	sts	0x0419, r1	; 0x800419 <s_rx_lock>
	}

	return twcr_new;
}
    35f4:	c0 65       	ori	r28, 0x50	; 80
    35f6:	8c 2f       	mov	r24, r28
    35f8:	df 91       	pop	r29
    35fa:	cf 91       	pop	r28
    35fc:	1f 91       	pop	r17
    35fe:	08 95       	ret

00003600 <cpu_irq_save>:
    3600:	cf 93       	push	r28
    3602:	df 93       	push	r29
    3604:	1f 92       	push	r1
    3606:	cd b7       	in	r28, 0x3d	; 61
    3608:	de b7       	in	r29, 0x3e	; 62
    360a:	8f b7       	in	r24, 0x3f	; 63
    360c:	89 83       	std	Y+1, r24	; 0x01
    360e:	f8 94       	cli
    3610:	89 81       	ldd	r24, Y+1	; 0x01
    3612:	0f 90       	pop	r0
    3614:	df 91       	pop	r29
    3616:	cf 91       	pop	r28
    3618:	08 95       	ret

0000361a <get_abs_time>:
    361a:	8f 92       	push	r8
    361c:	9f 92       	push	r9
    361e:	af 92       	push	r10
    3620:	bf 92       	push	r11
    3622:	cf 92       	push	r12
    3624:	df 92       	push	r13
    3626:	ef 92       	push	r14
    3628:	ff 92       	push	r15
    362a:	ea df       	rcall	.-44     	; 0x3600 <cpu_irq_save>
    362c:	60 91 84 00 	lds	r22, 0x0084	; 0x800084 <__TEXT_REGION_LENGTH__+0x7e0084>
    3630:	90 91 85 00 	lds	r25, 0x0085	; 0x800085 <__TEXT_REGION_LENGTH__+0x7e0085>
    3634:	c0 90 72 04 	lds	r12, 0x0472	; 0x800472 <g_timer_abs_msb>
    3638:	d0 90 73 04 	lds	r13, 0x0473	; 0x800473 <g_timer_abs_msb+0x1>
    363c:	e0 90 74 04 	lds	r14, 0x0474	; 0x800474 <g_timer_abs_msb+0x2>
    3640:	f0 90 75 04 	lds	r15, 0x0475	; 0x800475 <g_timer_abs_msb+0x3>
    3644:	8f bf       	out	0x3f, r24	; 63
    3646:	70 e0       	ldi	r23, 0x00	; 0
    3648:	79 2b       	or	r23, r25
    364a:	07 2e       	mov	r0, r23
    364c:	00 0c       	add	r0, r0
    364e:	88 0b       	sbc	r24, r24
    3650:	99 0b       	sbc	r25, r25
    3652:	5f d3       	rcall	.+1726   	; 0x3d12 <__floatsisf>
    3654:	20 e0       	ldi	r18, 0x00	; 0
    3656:	34 e2       	ldi	r19, 0x24	; 36
    3658:	44 ef       	ldi	r20, 0xF4	; 244
    365a:	5a e4       	ldi	r21, 0x4A	; 74
    365c:	bf d2       	rcall	.+1406   	; 0x3bdc <__divsf3>
    365e:	4b 01       	movw	r8, r22
    3660:	5c 01       	movw	r10, r24
    3662:	c7 01       	movw	r24, r14
    3664:	b6 01       	movw	r22, r12
    3666:	53 d3       	rcall	.+1702   	; 0x3d0e <__floatunsisf>
    3668:	20 e0       	ldi	r18, 0x00	; 0
    366a:	30 e0       	ldi	r19, 0x00	; 0
    366c:	40 e0       	ldi	r20, 0x00	; 0
    366e:	54 e4       	ldi	r21, 0x44	; 68
    3670:	57 d4       	rcall	.+2222   	; 0x3f20 <__mulsf3>
    3672:	20 e0       	ldi	r18, 0x00	; 0
    3674:	34 e2       	ldi	r19, 0x24	; 36
    3676:	44 ef       	ldi	r20, 0xF4	; 244
    3678:	5a e4       	ldi	r21, 0x4A	; 74
    367a:	b0 d2       	rcall	.+1376   	; 0x3bdc <__divsf3>
    367c:	a5 01       	movw	r20, r10
    367e:	94 01       	movw	r18, r8
    3680:	45 d2       	rcall	.+1162   	; 0x3b0c <__addsf3>
    3682:	ff 90       	pop	r15
    3684:	ef 90       	pop	r14
    3686:	df 90       	pop	r13
    3688:	cf 90       	pop	r12
    368a:	bf 90       	pop	r11
    368c:	af 90       	pop	r10
    368e:	9f 90       	pop	r9
    3690:	8f 90       	pop	r8
    3692:	08 95       	ret

00003694 <mem_set>:
    3694:	70 e0       	ldi	r23, 0x00	; 0
    3696:	61 15       	cp	r22, r1
    3698:	71 05       	cpc	r23, r1
    369a:	31 f0       	breq	.+12     	; 0x36a8 <mem_set+0x14>
    369c:	fc 01       	movw	r30, r24
    369e:	41 93       	st	Z+, r20
    36a0:	cf 01       	movw	r24, r30
    36a2:	61 50       	subi	r22, 0x01	; 1
    36a4:	71 09       	sbc	r23, r1
    36a6:	f7 cf       	rjmp	.-18     	; 0x3696 <mem_set+0x2>
    36a8:	08 95       	ret

000036aa <eeprom_nvm_settings_write>:
    36aa:	cf 93       	push	r28
    36ac:	c8 2f       	mov	r28, r24
    36ae:	87 ff       	sbrs	r24, 7
    36b0:	04 c0       	rjmp	.+8      	; 0x36ba <eeprom_nvm_settings_write+0x10>
    36b2:	61 e1       	ldi	r22, 0x11	; 17
    36b4:	80 e0       	ldi	r24, 0x00	; 0
    36b6:	90 e0       	ldi	r25, 0x00	; 0
    36b8:	8d d7       	rcall	.+3866   	; 0x45d4 <eeprom_write_byte>
    36ba:	c0 ff       	sbrs	r28, 0
    36bc:	07 c0       	rjmp	.+14     	; 0x36cc <eeprom_nvm_settings_write+0x22>
    36be:	60 91 63 04 	lds	r22, 0x0463	; 0x800463 <g_lcd_contrast_pm>
    36c2:	6f 73       	andi	r22, 0x3F	; 63
    36c4:	80 e1       	ldi	r24, 0x10	; 16
    36c6:	90 e0       	ldi	r25, 0x00	; 0
    36c8:	cf 91       	pop	r28
    36ca:	84 c7       	rjmp	.+3848   	; 0x45d4 <eeprom_write_byte>
    36cc:	cf 91       	pop	r28
    36ce:	08 95       	ret

000036d0 <eeprom_nvm_settings_read>:
    36d0:	87 ff       	sbrs	r24, 7
    36d2:	07 c0       	rjmp	.+14     	; 0x36e2 <eeprom_nvm_settings_read+0x12>
    36d4:	80 e0       	ldi	r24, 0x00	; 0
    36d6:	90 e0       	ldi	r25, 0x00	; 0
    36d8:	75 d7       	rcall	.+3818   	; 0x45c4 <eeprom_read_byte>
    36da:	81 31       	cpi	r24, 0x11	; 17
    36dc:	11 f0       	breq	.+4      	; 0x36e2 <eeprom_nvm_settings_read+0x12>
    36de:	80 e8       	ldi	r24, 0x80	; 128
    36e0:	e4 df       	rcall	.-56     	; 0x36aa <eeprom_nvm_settings_write>
    36e2:	86 e1       	ldi	r24, 0x16	; 22
    36e4:	80 93 63 04 	sts	0x0463, r24	; 0x800463 <g_lcd_contrast_pm>
    36e8:	08 95       	ret

000036ea <task>:
    36ea:	8f 92       	push	r8
    36ec:	9f 92       	push	r9
    36ee:	af 92       	push	r10
    36f0:	bf 92       	push	r11
    36f2:	cf 92       	push	r12
    36f4:	df 92       	push	r13
    36f6:	ef 92       	push	r14
    36f8:	ff 92       	push	r15
    36fa:	0f 93       	push	r16
    36fc:	1f 93       	push	r17
    36fe:	cf 93       	push	r28
    3700:	df 93       	push	r29
    3702:	cd b7       	in	r28, 0x3d	; 61
    3704:	de b7       	in	r29, 0x3e	; 62
    3706:	a8 97       	sbiw	r28, 0x28	; 40
    3708:	0f b6       	in	r0, 0x3f	; 63
    370a:	f8 94       	cli
    370c:	de bf       	out	0x3e, r29	; 62
    370e:	0f be       	out	0x3f, r0	; 63
    3710:	cd bf       	out	0x3d, r28	; 61
    3712:	76 df       	rcall	.-276    	; 0x3600 <cpu_irq_save>
    3714:	80 90 69 04 	lds	r8, 0x0469	; 0x800469 <g_adc_temp>
    3718:	90 90 6a 04 	lds	r9, 0x046A	; 0x80046a <g_adc_temp+0x1>
    371c:	a0 90 6b 04 	lds	r10, 0x046B	; 0x80046b <g_adc_temp+0x2>
    3720:	b0 90 6c 04 	lds	r11, 0x046C	; 0x80046c <g_adc_temp+0x3>
    3724:	c0 90 6d 04 	lds	r12, 0x046D	; 0x80046d <g_adc_light>
    3728:	d0 90 6e 04 	lds	r13, 0x046E	; 0x80046e <g_adc_light+0x1>
    372c:	e0 90 6f 04 	lds	r14, 0x046F	; 0x80046f <g_adc_light+0x2>
    3730:	f0 90 70 04 	lds	r15, 0x0470	; 0x800470 <g_adc_light+0x3>
    3734:	8f bf       	out	0x3f, r24	; 63
    3736:	64 df       	rcall	.-312    	; 0x3600 <cpu_irq_save>
    3738:	18 2f       	mov	r17, r24
    373a:	29 e1       	ldi	r18, 0x19	; 25
    373c:	37 ec       	ldi	r19, 0xC7	; 199
    373e:	4f ea       	ldi	r20, 0xAF	; 175
    3740:	53 e4       	ldi	r21, 0x43	; 67
    3742:	c5 01       	movw	r24, r10
    3744:	b4 01       	movw	r22, r8
    3746:	e1 d1       	rcall	.+962    	; 0x3b0a <__subsf3>
    3748:	20 e0       	ldi	r18, 0x00	; 0
    374a:	30 ea       	ldi	r19, 0xA0	; 160
    374c:	47 e8       	ldi	r20, 0x87	; 135
    374e:	5f e3       	ldi	r21, 0x3F	; 63
    3750:	e7 d3       	rcall	.+1998   	; 0x3f20 <__mulsf3>
    3752:	20 e0       	ldi	r18, 0x00	; 0
    3754:	30 e0       	ldi	r19, 0x00	; 0
    3756:	48 ec       	ldi	r20, 0xC8	; 200
    3758:	51 e4       	ldi	r21, 0x41	; 65
    375a:	d8 d1       	rcall	.+944    	; 0x3b0c <__addsf3>
    375c:	60 93 65 04 	sts	0x0465, r22	; 0x800465 <g_temp>
    3760:	70 93 66 04 	sts	0x0466, r23	; 0x800466 <g_temp+0x1>
    3764:	80 93 67 04 	sts	0x0467, r24	; 0x800467 <g_temp+0x2>
    3768:	90 93 68 04 	sts	0x0468, r25	; 0x800468 <g_temp+0x3>
    376c:	1f bf       	out	0x3f, r17	; 63
    376e:	c7 01       	movw	r24, r14
    3770:	b6 01       	movw	r22, r12
    3772:	a1 d2       	rcall	.+1346   	; 0x3cb6 <__fixunssfsi>
    3774:	66 3b       	cpi	r22, 0xB6	; 182
    3776:	23 e0       	ldi	r18, 0x03	; 3
    3778:	72 07       	cpc	r23, r18
    377a:	00 f5       	brcc	.+64     	; 0x37bc <task+0xd2>
    377c:	80 e0       	ldi	r24, 0x00	; 0
    377e:	90 e0       	ldi	r25, 0x00	; 0
    3780:	c6 d2       	rcall	.+1420   	; 0x3d0e <__floatunsisf>
    3782:	20 e0       	ldi	r18, 0x00	; 0
    3784:	30 e0       	ldi	r19, 0x00	; 0
    3786:	40 e2       	ldi	r20, 0x20	; 32
    3788:	51 e4       	ldi	r21, 0x41	; 65
    378a:	bf d1       	rcall	.+894    	; 0x3b0a <__subsf3>
    378c:	20 e0       	ldi	r18, 0x00	; 0
    378e:	30 e8       	ldi	r19, 0x80	; 128
    3790:	4d e6       	ldi	r20, 0x6D	; 109
    3792:	54 e4       	ldi	r21, 0x44	; 68
    3794:	23 d2       	rcall	.+1094   	; 0x3bdc <__divsf3>
    3796:	20 e0       	ldi	r18, 0x00	; 0
    3798:	30 e0       	ldi	r19, 0x00	; 0
    379a:	45 e7       	ldi	r20, 0x75	; 117
    379c:	53 e4       	ldi	r21, 0x43	; 67
    379e:	c0 d3       	rcall	.+1920   	; 0x3f20 <__mulsf3>
    37a0:	20 e0       	ldi	r18, 0x00	; 0
    37a2:	30 e0       	ldi	r19, 0x00	; 0
    37a4:	40 e2       	ldi	r20, 0x20	; 32
    37a6:	51 e4       	ldi	r21, 0x41	; 65
    37a8:	b1 d1       	rcall	.+866    	; 0x3b0c <__addsf3>
    37aa:	85 d2       	rcall	.+1290   	; 0x3cb6 <__fixunssfsi>
    37ac:	60 93 b3 00 	sts	0x00B3, r22	; 0x8000b3 <__TEXT_REGION_LENGTH__+0x7e00b3>
    37b0:	80 91 b0 00 	lds	r24, 0x00B0	; 0x8000b0 <__TEXT_REGION_LENGTH__+0x7e00b0>
    37b4:	80 68       	ori	r24, 0x80	; 128
    37b6:	80 93 b0 00 	sts	0x00B0, r24	; 0x8000b0 <__TEXT_REGION_LENGTH__+0x7e00b0>
    37ba:	07 c0       	rjmp	.+14     	; 0x37ca <task+0xe0>
    37bc:	10 92 b3 00 	sts	0x00B3, r1	; 0x8000b3 <__TEXT_REGION_LENGTH__+0x7e00b3>
    37c0:	80 91 b0 00 	lds	r24, 0x00B0	; 0x8000b0 <__TEXT_REGION_LENGTH__+0x7e00b0>
    37c4:	8f 73       	andi	r24, 0x3F	; 63
    37c6:	80 93 b0 00 	sts	0x00B0, r24	; 0x8000b0 <__TEXT_REGION_LENGTH__+0x7e00b0>
    37ca:	1a df       	rcall	.-460    	; 0x3600 <cpu_irq_save>
    37cc:	10 91 28 04 	lds	r17, 0x0428	; 0x800428 <g_SmartLCD_mode>
    37d0:	90 91 5e 04 	lds	r25, 0x045E	; 0x80045e <g_status>
    37d4:	09 2f       	mov	r16, r25
    37d6:	01 70       	andi	r16, 0x01	; 1
    37d8:	96 95       	lsr	r25
    37da:	91 70       	andi	r25, 0x01	; 1
    37dc:	8f bf       	out	0x3f, r24	; 63
    37de:	99 23       	and	r25, r25
    37e0:	09 f4       	brne	.+2      	; 0x37e4 <task+0xfa>
    37e2:	46 c0       	rjmp	.+140    	; 0x3870 <task+0x186>
    37e4:	10 31       	cpi	r17, 0x10	; 16
    37e6:	21 f4       	brne	.+8      	; 0x37f0 <task+0x106>
    37e8:	0e 94 2c 0e 	call	0x1c58	; 0x1c58 <lcd_show_new_smartlcd_data>
    37ec:	f8 2e       	mov	r15, r24
    37ee:	06 c0       	rjmp	.+12     	; 0x37fc <task+0x112>
    37f0:	10 32       	cpi	r17, 0x20	; 32
    37f2:	09 f0       	breq	.+2      	; 0x37f6 <task+0x10c>
    37f4:	3d c0       	rjmp	.+122    	; 0x3870 <task+0x186>
    37f6:	0e 94 f2 0e 	call	0x1de4	; 0x1de4 <lcd_show_new_refosc_data>
    37fa:	f8 2e       	mov	r15, r24
    37fc:	01 11       	cpse	r16, r1
    37fe:	35 c0       	rjmp	.+106    	; 0x386a <task+0x180>
    3800:	80 91 02 01 	lds	r24, 0x0102	; 0x800102 <s_last_animation.3296>
    3804:	88 23       	and	r24, r24
    3806:	89 f1       	breq	.+98     	; 0x386a <task+0x180>
    3808:	10 92 02 01 	sts	0x0102, r1	; 0x800102 <s_last_animation.3296>
    380c:	0e 94 cb 0c 	call	0x1996	; 0x1996 <lcd_cls>
    3810:	10 31       	cpi	r17, 0x10	; 16
    3812:	41 f4       	brne	.+16     	; 0x3824 <task+0x13a>
    3814:	01 e0       	ldi	r16, 0x01	; 1
    3816:	20 e8       	ldi	r18, 0x80	; 128
    3818:	40 ef       	ldi	r20, 0xF0	; 240
    381a:	60 e0       	ldi	r22, 0x00	; 0
    381c:	80 e0       	ldi	r24, 0x00	; 0
    381e:	0e 94 62 04 	call	0x8c4	; 0x8c4 <gfx_mono_generic_draw_rect>
    3822:	1c c0       	rjmp	.+56     	; 0x385c <task+0x172>
    3824:	10 32       	cpi	r17, 0x20	; 32
    3826:	d1 f4       	brne	.+52     	; 0x385c <task+0x172>
    3828:	01 e0       	ldi	r16, 0x01	; 1
    382a:	20 e8       	ldi	r18, 0x80	; 128
    382c:	40 ef       	ldi	r20, 0xF0	; 240
    382e:	60 e0       	ldi	r22, 0x00	; 0
    3830:	80 e0       	ldi	r24, 0x00	; 0
    3832:	0e 94 62 04 	call	0x8c4	; 0x8c4 <gfx_mono_generic_draw_rect>
    3836:	88 e2       	ldi	r24, 0x28	; 40
    3838:	e0 e2       	ldi	r30, 0x20	; 32
    383a:	f3 e0       	ldi	r31, 0x03	; 3
    383c:	de 01       	movw	r26, r28
    383e:	11 96       	adiw	r26, 0x01	; 1
    3840:	01 90       	ld	r0, Z+
    3842:	0d 92       	st	X+, r0
    3844:	8a 95       	dec	r24
    3846:	e1 f7       	brne	.-8      	; 0x3840 <task+0x156>
    3848:	b0 db       	rcall	.-2208   	; 0x2faa <lcd_get_sysfont>
    384a:	9c 01       	movw	r18, r24
    384c:	42 e0       	ldi	r20, 0x02	; 2
    384e:	63 e0       	ldi	r22, 0x03	; 3
    3850:	ce 01       	movw	r24, r28
    3852:	01 96       	adiw	r24, 0x01	; 1
    3854:	0e 94 cc 06 	call	0xd98	; 0xd98 <gfx_mono_draw_string>
    3858:	0e 94 e0 0c 	call	0x19c0	; 0x19c0 <lcd_show_template>
    385c:	d1 de       	rcall	.-606    	; 0x3600 <cpu_irq_save>
    385e:	90 91 5e 04 	lds	r25, 0x045E	; 0x80045e <g_status>
    3862:	92 60       	ori	r25, 0x02	; 2
    3864:	90 93 5e 04 	sts	0x045E, r25	; 0x80045e <g_status>
    3868:	8f bf       	out	0x3f, r24	; 63
    386a:	f1 10       	cpse	r15, r1
    386c:	ae cf       	rjmp	.-164    	; 0x37ca <task+0xe0>
    386e:	04 c0       	rjmp	.+8      	; 0x3878 <task+0x18e>
    3870:	01 11       	cpse	r16, r1
    3872:	02 c0       	rjmp	.+4      	; 0x3878 <task+0x18e>
    3874:	f1 2c       	mov	r15, r1
    3876:	c4 cf       	rjmp	.-120    	; 0x3800 <task+0x116>
    3878:	a8 96       	adiw	r28, 0x28	; 40
    387a:	0f b6       	in	r0, 0x3f	; 63
    387c:	f8 94       	cli
    387e:	de bf       	out	0x3e, r29	; 62
    3880:	0f be       	out	0x3f, r0	; 63
    3882:	cd bf       	out	0x3d, r28	; 61
    3884:	df 91       	pop	r29
    3886:	cf 91       	pop	r28
    3888:	1f 91       	pop	r17
    388a:	0f 91       	pop	r16
    388c:	ff 90       	pop	r15
    388e:	ef 90       	pop	r14
    3890:	df 90       	pop	r13
    3892:	cf 90       	pop	r12
    3894:	bf 90       	pop	r11
    3896:	af 90       	pop	r10
    3898:	9f 90       	pop	r9
    389a:	8f 90       	pop	r8
    389c:	08 95       	ret

0000389e <main>:
    389e:	cf 93       	push	r28
    38a0:	df 93       	push	r29
    38a2:	8e e7       	ldi	r24, 0x7E	; 126
    38a4:	88 b9       	out	0x08, r24	; 8
    38a6:	88 e0       	ldi	r24, 0x08	; 8
    38a8:	87 b9       	out	0x07, r24	; 7
    38aa:	84 e1       	ldi	r24, 0x14	; 20
    38ac:	85 b9       	out	0x05, r24	; 5
    38ae:	8b ef       	ldi	r24, 0xFB	; 251
    38b0:	84 b9       	out	0x04, r24	; 4
    38b2:	8f ef       	ldi	r24, 0xFF	; 255
    38b4:	8b b9       	out	0x0b, r24	; 11
    38b6:	1a b8       	out	0x0a, r1	; 10
    38b8:	c1 e0       	ldi	r28, 0x01	; 1
    38ba:	c0 93 7e 00 	sts	0x007E, r28	; 0x80007e <__TEXT_REGION_LENGTH__+0x7e007e>
    38be:	0e 94 f9 02 	call	0x5f2	; 0x5f2 <sysclk_init>
    38c2:	8b ee       	ldi	r24, 0xEB	; 235
    38c4:	80 93 64 00 	sts	0x0064, r24	; 0x800064 <__TEXT_REGION_LENGTH__+0x7e0064>
    38c8:	d3 e8       	ldi	r29, 0x83	; 131
    38ca:	d3 bd       	out	0x23, r29	; 35
    38cc:	68 e0       	ldi	r22, 0x08	; 8
    38ce:	80 e0       	ldi	r24, 0x00	; 0
    38d0:	0e 94 12 03 	call	0x624	; 0x624 <sysclk_enable_module>
    38d4:	82 e8       	ldi	r24, 0x82	; 130
    38d6:	80 93 80 00 	sts	0x0080, r24	; 0x800080 <__TEXT_REGION_LENGTH__+0x7e0080>
    38da:	89 e0       	ldi	r24, 0x09	; 9
    38dc:	80 93 81 00 	sts	0x0081, r24	; 0x800081 <__TEXT_REGION_LENGTH__+0x7e0081>
    38e0:	10 92 85 00 	sts	0x0085, r1	; 0x800085 <__TEXT_REGION_LENGTH__+0x7e0085>
    38e4:	10 92 84 00 	sts	0x0084, r1	; 0x800084 <__TEXT_REGION_LENGTH__+0x7e0084>
    38e8:	10 92 89 00 	sts	0x0089, r1	; 0x800089 <__TEXT_REGION_LENGTH__+0x7e0089>
    38ec:	80 e8       	ldi	r24, 0x80	; 128
    38ee:	80 93 88 00 	sts	0x0088, r24	; 0x800088 <__TEXT_REGION_LENGTH__+0x7e0088>
    38f2:	c0 93 6f 00 	sts	0x006F, r28	; 0x80006f <__TEXT_REGION_LENGTH__+0x7e006f>
    38f6:	87 e2       	ldi	r24, 0x27	; 39
    38f8:	86 bb       	out	0x16, r24	; 22
    38fa:	60 e4       	ldi	r22, 0x40	; 64
    38fc:	80 e0       	ldi	r24, 0x00	; 0
    38fe:	0e 94 12 03 	call	0x624	; 0x624 <sysclk_enable_module>
    3902:	d0 93 b0 00 	sts	0x00B0, r29	; 0x8000b0 <__TEXT_REGION_LENGTH__+0x7e00b0>
    3906:	85 e0       	ldi	r24, 0x05	; 5
    3908:	80 93 b1 00 	sts	0x00B1, r24	; 0x8000b1 <__TEXT_REGION_LENGTH__+0x7e00b1>
    390c:	10 92 b2 00 	sts	0x00B2, r1	; 0x8000b2 <__TEXT_REGION_LENGTH__+0x7e00b2>
    3910:	10 92 b3 00 	sts	0x00B3, r1	; 0x8000b3 <__TEXT_REGION_LENGTH__+0x7e00b3>
    3914:	c0 93 70 00 	sts	0x0070, r28	; 0x800070 <__TEXT_REGION_LENGTH__+0x7e0070>
    3918:	87 e0       	ldi	r24, 0x07	; 7
    391a:	87 bb       	out	0x17, r24	; 23
    391c:	10 92 b6 00 	sts	0x00B6, r1	; 0x8000b6 <__TEXT_REGION_LENGTH__+0x7e00b6>
    3920:	61 e0       	ldi	r22, 0x01	; 1
    3922:	80 e0       	ldi	r24, 0x00	; 0
    3924:	0e 94 12 03 	call	0x624	; 0x624 <sysclk_enable_module>
    3928:	c0 93 7e 00 	sts	0x007E, r28	; 0x80007e <__TEXT_REGION_LENGTH__+0x7e007e>
    392c:	87 e8       	ldi	r24, 0x87	; 135
    392e:	80 93 7a 00 	sts	0x007A, r24	; 0x80007a <__TEXT_REGION_LENGTH__+0x7e007a>
    3932:	80 ec       	ldi	r24, 0xC0	; 192
    3934:	80 93 7c 00 	sts	0x007C, r24	; 0x80007c <__TEXT_REGION_LENGTH__+0x7e007c>
    3938:	80 91 7a 00 	lds	r24, 0x007A	; 0x80007a <__TEXT_REGION_LENGTH__+0x7e007a>
    393c:	80 61       	ori	r24, 0x10	; 16
    393e:	80 93 7a 00 	sts	0x007A, r24	; 0x80007a <__TEXT_REGION_LENGTH__+0x7e007a>
    3942:	80 91 7a 00 	lds	r24, 0x007A	; 0x80007a <__TEXT_REGION_LENGTH__+0x7e007a>
    3946:	88 60       	ori	r24, 0x08	; 8
    3948:	80 93 7a 00 	sts	0x007A, r24	; 0x80007a <__TEXT_REGION_LENGTH__+0x7e007a>
    394c:	80 91 7b 00 	lds	r24, 0x007B	; 0x80007b <__TEXT_REGION_LENGTH__+0x7e007b>
    3950:	88 7f       	andi	r24, 0xF8	; 248
    3952:	86 60       	ori	r24, 0x06	; 6
    3954:	80 93 7b 00 	sts	0x007B, r24	; 0x80007b <__TEXT_REGION_LENGTH__+0x7e007b>
    3958:	80 91 7a 00 	lds	r24, 0x007A	; 0x80007a <__TEXT_REGION_LENGTH__+0x7e007a>
    395c:	80 62       	ori	r24, 0x20	; 32
    395e:	80 93 7a 00 	sts	0x007A, r24	; 0x80007a <__TEXT_REGION_LENGTH__+0x7e007a>
    3962:	0e 94 f8 02 	call	0x5f0	; 0x5f0 <board_init>
    3966:	84 b7       	in	r24, 0x34	; 52
    3968:	98 2f       	mov	r25, r24
    396a:	97 70       	andi	r25, 0x07	; 7
    396c:	11 f4       	brne	.+4      	; 0x3972 <main+0xd4>
    396e:	81 11       	cpse	r24, r1
    3970:	2b c0       	rjmp	.+86     	; 0x39c8 <main+0x12a>
    3972:	46 de       	rcall	.-884    	; 0x3600 <cpu_irq_save>
    3974:	f8 94       	cli
    3976:	10 92 71 04 	sts	0x0471, r1	; 0x800471 <g_adc_state>
    397a:	10 92 6d 04 	sts	0x046D, r1	; 0x80046d <g_adc_light>
    397e:	10 92 6e 04 	sts	0x046E, r1	; 0x80046e <g_adc_light+0x1>
    3982:	10 92 6f 04 	sts	0x046F, r1	; 0x80046f <g_adc_light+0x2>
    3986:	10 92 70 04 	sts	0x0470, r1	; 0x800470 <g_adc_light+0x3>
    398a:	10 92 69 04 	sts	0x0469, r1	; 0x800469 <g_adc_temp>
    398e:	10 92 6a 04 	sts	0x046A, r1	; 0x80046a <g_adc_temp+0x1>
    3992:	10 92 6b 04 	sts	0x046B, r1	; 0x80046b <g_adc_temp+0x2>
    3996:	10 92 6c 04 	sts	0x046C, r1	; 0x80046c <g_adc_temp+0x3>
    399a:	40 e0       	ldi	r20, 0x00	; 0
    399c:	50 e0       	ldi	r21, 0x00	; 0
    399e:	68 ec       	ldi	r22, 0xC8	; 200
    39a0:	71 e4       	ldi	r23, 0x41	; 65
    39a2:	40 93 65 04 	sts	0x0465, r20	; 0x800465 <g_temp>
    39a6:	50 93 66 04 	sts	0x0466, r21	; 0x800466 <g_temp+0x1>
    39aa:	60 93 67 04 	sts	0x0467, r22	; 0x800467 <g_temp+0x2>
    39ae:	70 93 68 04 	sts	0x0468, r23	; 0x800468 <g_temp+0x3>
    39b2:	90 e4       	ldi	r25, 0x40	; 64
    39b4:	90 93 64 04 	sts	0x0464, r25	; 0x800464 <g_lcdbl_dimmer>
    39b8:	90 91 5e 04 	lds	r25, 0x045E	; 0x80045e <g_status>
    39bc:	9e 7f       	andi	r25, 0xFE	; 254
    39be:	9d 7f       	andi	r25, 0xFD	; 253
    39c0:	90 93 5e 04 	sts	0x045E, r25	; 0x80045e <g_status>
    39c4:	8f bf       	out	0x3f, r24	; 63
    39c6:	0d c0       	rjmp	.+26     	; 0x39e2 <main+0x144>
    39c8:	90 e0       	ldi	r25, 0x00	; 0
    39ca:	a0 e0       	ldi	r26, 0x00	; 0
    39cc:	b0 e0       	ldi	r27, 0x00	; 0
    39ce:	80 93 24 04 	sts	0x0424, r24	; 0x800424 <g_u32_DEBUG21>
    39d2:	90 93 25 04 	sts	0x0425, r25	; 0x800425 <g_u32_DEBUG21+0x1>
    39d6:	a0 93 26 04 	sts	0x0426, r26	; 0x800426 <g_u32_DEBUG21+0x2>
    39da:	b0 93 27 04 	sts	0x0427, r27	; 0x800427 <g_u32_DEBUG21+0x3>
    39de:	0e 94 f8 06 	call	0xdf0	; 0xdf0 <asm_break>
    39e2:	8f ef       	ldi	r24, 0xFF	; 255
    39e4:	75 de       	rcall	.-790    	; 0x36d0 <eeprom_nvm_settings_read>
    39e6:	60 e8       	ldi	r22, 0x80	; 128
    39e8:	80 e0       	ldi	r24, 0x00	; 0
    39ea:	0e 94 12 03 	call	0x624	; 0x624 <sysclk_enable_module>
    39ee:	08 de       	rcall	.-1008   	; 0x3600 <cpu_irq_save>
    39f0:	10 92 b9 00 	sts	0x00B9, r1	; 0x8000b9 <__TEXT_REGION_LENGTH__+0x7e00b9>
    39f4:	92 e0       	ldi	r25, 0x02	; 2
    39f6:	90 93 b8 00 	sts	0x00B8, r25	; 0x8000b8 <__TEXT_REGION_LENGTH__+0x7e00b8>
    39fa:	94 e4       	ldi	r25, 0x44	; 68
    39fc:	90 93 ba 00 	sts	0x00BA, r25	; 0x8000ba <__TEXT_REGION_LENGTH__+0x7e00ba>
    3a00:	10 92 bd 00 	sts	0x00BD, r1	; 0x8000bd <__TEXT_REGION_LENGTH__+0x7e00bd>
    3a04:	95 e4       	ldi	r25, 0x45	; 69
    3a06:	90 93 bc 00 	sts	0x00BC, r25	; 0x8000bc <__TEXT_REGION_LENGTH__+0x7e00bc>
    3a0a:	8f bf       	out	0x3f, r24	; 63
    3a0c:	78 94       	sei
    3a0e:	13 bc       	out	0x23, r1	; 35
    3a10:	cf da       	rcall	.-2658   	; 0x2fb0 <lcd_init>
    3a12:	81 ef       	ldi	r24, 0xF1	; 241
    3a14:	9a d8       	rcall	.-3788   	; 0x2b4a <lcd_test>
    3a16:	81 e0       	ldi	r24, 0x01	; 1
    3a18:	80 93 23 04 	sts	0x0423, r24	; 0x800423 <runmode>
    3a1c:	c1 e0       	ldi	r28, 0x01	; 1
    3a1e:	80 91 23 04 	lds	r24, 0x0423	; 0x800423 <runmode>
    3a22:	88 23       	and	r24, r24
    3a24:	39 f0       	breq	.+14     	; 0x3a34 <main+0x196>
    3a26:	61 de       	rcall	.-830    	; 0x36ea <task>
    3a28:	c3 bf       	out	0x33, r28	; 51
    3a2a:	88 95       	sleep
    3a2c:	83 b7       	in	r24, 0x33	; 51
    3a2e:	8e 7f       	andi	r24, 0xFE	; 254
    3a30:	83 bf       	out	0x33, r24	; 51
    3a32:	f5 cf       	rjmp	.-22     	; 0x3a1e <main+0x180>
    3a34:	df da       	rcall	.-2626   	; 0x2ff4 <lcd_shutdown>
    3a36:	f8 94       	cli
    3a38:	80 b7       	in	r24, 0x30	; 48
    3a3a:	80 68       	ori	r24, 0x80	; 128
    3a3c:	80 bf       	out	0x30, r24	; 48
    3a3e:	64 e0       	ldi	r22, 0x04	; 4
    3a40:	80 e0       	ldi	r24, 0x00	; 0
    3a42:	0e 94 28 03 	call	0x650	; 0x650 <sysclk_disable_module>
    3a46:	62 e0       	ldi	r22, 0x02	; 2
    3a48:	80 e0       	ldi	r24, 0x00	; 0
    3a4a:	0e 94 28 03 	call	0x650	; 0x650 <sysclk_disable_module>
    3a4e:	d8 dd       	rcall	.-1104   	; 0x3600 <cpu_irq_save>
    3a50:	94 e0       	ldi	r25, 0x04	; 4
    3a52:	90 93 bc 00 	sts	0x00BC, r25	; 0x8000bc <__TEXT_REGION_LENGTH__+0x7e00bc>
    3a56:	3c 98       	cbi	0x07, 4	; 7
    3a58:	44 9a       	sbi	0x08, 4	; 8
    3a5a:	3d 98       	cbi	0x07, 5	; 7
    3a5c:	45 9a       	sbi	0x08, 5	; 8
    3a5e:	10 92 bc 00 	sts	0x00BC, r1	; 0x8000bc <__TEXT_REGION_LENGTH__+0x7e00bc>
    3a62:	8f bf       	out	0x3f, r24	; 63
    3a64:	60 e8       	ldi	r22, 0x80	; 128
    3a66:	80 e0       	ldi	r24, 0x00	; 0
    3a68:	0e 94 28 03 	call	0x650	; 0x650 <sysclk_disable_module>
    3a6c:	80 91 7a 00 	lds	r24, 0x007A	; 0x80007a <__TEXT_REGION_LENGTH__+0x7e007a>
    3a70:	87 7f       	andi	r24, 0xF7	; 247
    3a72:	80 93 7a 00 	sts	0x007A, r24	; 0x80007a <__TEXT_REGION_LENGTH__+0x7e007a>
    3a76:	80 91 7a 00 	lds	r24, 0x007A	; 0x80007a <__TEXT_REGION_LENGTH__+0x7e007a>
    3a7a:	8f 7d       	andi	r24, 0xDF	; 223
    3a7c:	80 93 7a 00 	sts	0x007A, r24	; 0x80007a <__TEXT_REGION_LENGTH__+0x7e007a>
    3a80:	80 91 7b 00 	lds	r24, 0x007B	; 0x80007b <__TEXT_REGION_LENGTH__+0x7e007b>
    3a84:	88 7f       	andi	r24, 0xF8	; 248
    3a86:	80 93 7b 00 	sts	0x007B, r24	; 0x80007b <__TEXT_REGION_LENGTH__+0x7e007b>
    3a8a:	10 92 7c 00 	sts	0x007C, r1	; 0x80007c <__TEXT_REGION_LENGTH__+0x7e007c>
    3a8e:	10 92 7e 00 	sts	0x007E, r1	; 0x80007e <__TEXT_REGION_LENGTH__+0x7e007e>
    3a92:	61 e0       	ldi	r22, 0x01	; 1
    3a94:	80 e0       	ldi	r24, 0x00	; 0
    3a96:	0e 94 28 03 	call	0x650	; 0x650 <sysclk_disable_module>
    3a9a:	b2 dd       	rcall	.-1180   	; 0x3600 <cpu_irq_save>
    3a9c:	c8 2f       	mov	r28, r24
    3a9e:	60 e2       	ldi	r22, 0x20	; 32
    3aa0:	80 e0       	ldi	r24, 0x00	; 0
    3aa2:	0e 94 28 03 	call	0x650	; 0x650 <sysclk_disable_module>
    3aa6:	21 98       	cbi	0x04, 1	; 4
    3aa8:	29 98       	cbi	0x05, 1	; 5
    3aaa:	10 92 80 00 	sts	0x0080, r1	; 0x800080 <__TEXT_REGION_LENGTH__+0x7e0080>
    3aae:	10 92 81 00 	sts	0x0081, r1	; 0x800081 <__TEXT_REGION_LENGTH__+0x7e0081>
    3ab2:	10 92 82 00 	sts	0x0082, r1	; 0x800082 <__TEXT_REGION_LENGTH__+0x7e0082>
    3ab6:	10 92 6f 00 	sts	0x006F, r1	; 0x80006f <__TEXT_REGION_LENGTH__+0x7e006f>
    3aba:	68 e0       	ldi	r22, 0x08	; 8
    3abc:	80 e0       	ldi	r24, 0x00	; 0
    3abe:	0e 94 28 03 	call	0x650	; 0x650 <sysclk_disable_module>
    3ac2:	23 9a       	sbi	0x04, 3	; 4
    3ac4:	2b 98       	cbi	0x05, 3	; 5
    3ac6:	10 92 b0 00 	sts	0x00B0, r1	; 0x8000b0 <__TEXT_REGION_LENGTH__+0x7e00b0>
    3aca:	10 92 b1 00 	sts	0x00B1, r1	; 0x8000b1 <__TEXT_REGION_LENGTH__+0x7e00b1>
    3ace:	10 92 70 00 	sts	0x0070, r1	; 0x800070 <__TEXT_REGION_LENGTH__+0x7e0070>
    3ad2:	10 92 b6 00 	sts	0x00B6, r1	; 0x8000b6 <__TEXT_REGION_LENGTH__+0x7e00b6>
    3ad6:	60 e4       	ldi	r22, 0x40	; 64
    3ad8:	80 e0       	ldi	r24, 0x00	; 0
    3ada:	0e 94 28 03 	call	0x650	; 0x650 <sysclk_disable_module>
    3ade:	90 dd       	rcall	.-1248   	; 0x3600 <cpu_irq_save>
    3ae0:	5f 93       	push	r21
    3ae2:	50 e8       	ldi	r21, 0x80	; 128
    3ae4:	50 93 61 00 	sts	0x0061, r21	; 0x800061 <__TEXT_REGION_LENGTH__+0x7e0061>
    3ae8:	50 e0       	ldi	r21, 0x00	; 0
    3aea:	50 93 61 00 	sts	0x0061, r21	; 0x800061 <__TEXT_REGION_LENGTH__+0x7e0061>
    3aee:	5f 91       	pop	r21
    3af0:	8f bf       	out	0x3f, r24	; 63
    3af2:	cf bf       	out	0x3f, r28	; 63
    3af4:	89 e0       	ldi	r24, 0x09	; 9
    3af6:	83 bf       	out	0x33, r24	; 51
    3af8:	88 95       	sleep
    3afa:	83 b7       	in	r24, 0x33	; 51
    3afc:	8e 7f       	andi	r24, 0xFE	; 254
    3afe:	83 bf       	out	0x33, r24	; 51
    3b00:	80 e0       	ldi	r24, 0x00	; 0
    3b02:	90 e0       	ldi	r25, 0x00	; 0
    3b04:	df 91       	pop	r29
    3b06:	cf 91       	pop	r28
    3b08:	08 95       	ret

00003b0a <__subsf3>:
    3b0a:	50 58       	subi	r21, 0x80	; 128

00003b0c <__addsf3>:
    3b0c:	bb 27       	eor	r27, r27
    3b0e:	aa 27       	eor	r26, r26
    3b10:	0e d0       	rcall	.+28     	; 0x3b2e <__addsf3x>
    3b12:	b1 c1       	rjmp	.+866    	; 0x3e76 <__fp_round>
    3b14:	a2 d1       	rcall	.+836    	; 0x3e5a <__fp_pscA>
    3b16:	30 f0       	brcs	.+12     	; 0x3b24 <__addsf3+0x18>
    3b18:	a7 d1       	rcall	.+846    	; 0x3e68 <__fp_pscB>
    3b1a:	20 f0       	brcs	.+8      	; 0x3b24 <__addsf3+0x18>
    3b1c:	31 f4       	brne	.+12     	; 0x3b2a <__addsf3+0x1e>
    3b1e:	9f 3f       	cpi	r25, 0xFF	; 255
    3b20:	11 f4       	brne	.+4      	; 0x3b26 <__addsf3+0x1a>
    3b22:	1e f4       	brtc	.+6      	; 0x3b2a <__addsf3+0x1e>
    3b24:	97 c1       	rjmp	.+814    	; 0x3e54 <__fp_nan>
    3b26:	0e f4       	brtc	.+2      	; 0x3b2a <__addsf3+0x1e>
    3b28:	e0 95       	com	r30
    3b2a:	e7 fb       	bst	r30, 7
    3b2c:	64 c1       	rjmp	.+712    	; 0x3df6 <__fp_inf>

00003b2e <__addsf3x>:
    3b2e:	e9 2f       	mov	r30, r25
    3b30:	b3 d1       	rcall	.+870    	; 0x3e98 <__fp_split3>
    3b32:	80 f3       	brcs	.-32     	; 0x3b14 <__addsf3+0x8>
    3b34:	ba 17       	cp	r27, r26
    3b36:	62 07       	cpc	r22, r18
    3b38:	73 07       	cpc	r23, r19
    3b3a:	84 07       	cpc	r24, r20
    3b3c:	95 07       	cpc	r25, r21
    3b3e:	18 f0       	brcs	.+6      	; 0x3b46 <__addsf3x+0x18>
    3b40:	71 f4       	brne	.+28     	; 0x3b5e <__addsf3x+0x30>
    3b42:	9e f5       	brtc	.+102    	; 0x3baa <__addsf3x+0x7c>
    3b44:	e2 c1       	rjmp	.+964    	; 0x3f0a <__fp_zero>
    3b46:	0e f4       	brtc	.+2      	; 0x3b4a <__addsf3x+0x1c>
    3b48:	e0 95       	com	r30
    3b4a:	0b 2e       	mov	r0, r27
    3b4c:	ba 2f       	mov	r27, r26
    3b4e:	a0 2d       	mov	r26, r0
    3b50:	0b 01       	movw	r0, r22
    3b52:	b9 01       	movw	r22, r18
    3b54:	90 01       	movw	r18, r0
    3b56:	0c 01       	movw	r0, r24
    3b58:	ca 01       	movw	r24, r20
    3b5a:	a0 01       	movw	r20, r0
    3b5c:	11 24       	eor	r1, r1
    3b5e:	ff 27       	eor	r31, r31
    3b60:	59 1b       	sub	r21, r25
    3b62:	99 f0       	breq	.+38     	; 0x3b8a <__addsf3x+0x5c>
    3b64:	59 3f       	cpi	r21, 0xF9	; 249
    3b66:	50 f4       	brcc	.+20     	; 0x3b7c <__addsf3x+0x4e>
    3b68:	50 3e       	cpi	r21, 0xE0	; 224
    3b6a:	68 f1       	brcs	.+90     	; 0x3bc6 <__addsf3x+0x98>
    3b6c:	1a 16       	cp	r1, r26
    3b6e:	f0 40       	sbci	r31, 0x00	; 0
    3b70:	a2 2f       	mov	r26, r18
    3b72:	23 2f       	mov	r18, r19
    3b74:	34 2f       	mov	r19, r20
    3b76:	44 27       	eor	r20, r20
    3b78:	58 5f       	subi	r21, 0xF8	; 248
    3b7a:	f3 cf       	rjmp	.-26     	; 0x3b62 <__addsf3x+0x34>
    3b7c:	46 95       	lsr	r20
    3b7e:	37 95       	ror	r19
    3b80:	27 95       	ror	r18
    3b82:	a7 95       	ror	r26
    3b84:	f0 40       	sbci	r31, 0x00	; 0
    3b86:	53 95       	inc	r21
    3b88:	c9 f7       	brne	.-14     	; 0x3b7c <__addsf3x+0x4e>
    3b8a:	7e f4       	brtc	.+30     	; 0x3baa <__addsf3x+0x7c>
    3b8c:	1f 16       	cp	r1, r31
    3b8e:	ba 0b       	sbc	r27, r26
    3b90:	62 0b       	sbc	r22, r18
    3b92:	73 0b       	sbc	r23, r19
    3b94:	84 0b       	sbc	r24, r20
    3b96:	ba f0       	brmi	.+46     	; 0x3bc6 <__addsf3x+0x98>
    3b98:	91 50       	subi	r25, 0x01	; 1
    3b9a:	a1 f0       	breq	.+40     	; 0x3bc4 <__addsf3x+0x96>
    3b9c:	ff 0f       	add	r31, r31
    3b9e:	bb 1f       	adc	r27, r27
    3ba0:	66 1f       	adc	r22, r22
    3ba2:	77 1f       	adc	r23, r23
    3ba4:	88 1f       	adc	r24, r24
    3ba6:	c2 f7       	brpl	.-16     	; 0x3b98 <__addsf3x+0x6a>
    3ba8:	0e c0       	rjmp	.+28     	; 0x3bc6 <__addsf3x+0x98>
    3baa:	ba 0f       	add	r27, r26
    3bac:	62 1f       	adc	r22, r18
    3bae:	73 1f       	adc	r23, r19
    3bb0:	84 1f       	adc	r24, r20
    3bb2:	48 f4       	brcc	.+18     	; 0x3bc6 <__addsf3x+0x98>
    3bb4:	87 95       	ror	r24
    3bb6:	77 95       	ror	r23
    3bb8:	67 95       	ror	r22
    3bba:	b7 95       	ror	r27
    3bbc:	f7 95       	ror	r31
    3bbe:	9e 3f       	cpi	r25, 0xFE	; 254
    3bc0:	08 f0       	brcs	.+2      	; 0x3bc4 <__addsf3x+0x96>
    3bc2:	b3 cf       	rjmp	.-154    	; 0x3b2a <__addsf3+0x1e>
    3bc4:	93 95       	inc	r25
    3bc6:	88 0f       	add	r24, r24
    3bc8:	08 f0       	brcs	.+2      	; 0x3bcc <__addsf3x+0x9e>
    3bca:	99 27       	eor	r25, r25
    3bcc:	ee 0f       	add	r30, r30
    3bce:	97 95       	ror	r25
    3bd0:	87 95       	ror	r24
    3bd2:	08 95       	ret

00003bd4 <__cmpsf2>:
    3bd4:	ec d0       	rcall	.+472    	; 0x3dae <__fp_cmp>
    3bd6:	08 f4       	brcc	.+2      	; 0x3bda <__cmpsf2+0x6>
    3bd8:	81 e0       	ldi	r24, 0x01	; 1
    3bda:	08 95       	ret

00003bdc <__divsf3>:
    3bdc:	0c d0       	rcall	.+24     	; 0x3bf6 <__divsf3x>
    3bde:	4b c1       	rjmp	.+662    	; 0x3e76 <__fp_round>
    3be0:	43 d1       	rcall	.+646    	; 0x3e68 <__fp_pscB>
    3be2:	40 f0       	brcs	.+16     	; 0x3bf4 <__divsf3+0x18>
    3be4:	3a d1       	rcall	.+628    	; 0x3e5a <__fp_pscA>
    3be6:	30 f0       	brcs	.+12     	; 0x3bf4 <__divsf3+0x18>
    3be8:	21 f4       	brne	.+8      	; 0x3bf2 <__divsf3+0x16>
    3bea:	5f 3f       	cpi	r21, 0xFF	; 255
    3bec:	19 f0       	breq	.+6      	; 0x3bf4 <__divsf3+0x18>
    3bee:	03 c1       	rjmp	.+518    	; 0x3df6 <__fp_inf>
    3bf0:	51 11       	cpse	r21, r1
    3bf2:	8c c1       	rjmp	.+792    	; 0x3f0c <__fp_szero>
    3bf4:	2f c1       	rjmp	.+606    	; 0x3e54 <__fp_nan>

00003bf6 <__divsf3x>:
    3bf6:	50 d1       	rcall	.+672    	; 0x3e98 <__fp_split3>
    3bf8:	98 f3       	brcs	.-26     	; 0x3be0 <__divsf3+0x4>

00003bfa <__divsf3_pse>:
    3bfa:	99 23       	and	r25, r25
    3bfc:	c9 f3       	breq	.-14     	; 0x3bf0 <__divsf3+0x14>
    3bfe:	55 23       	and	r21, r21
    3c00:	b1 f3       	breq	.-20     	; 0x3bee <__divsf3+0x12>
    3c02:	95 1b       	sub	r25, r21
    3c04:	55 0b       	sbc	r21, r21
    3c06:	bb 27       	eor	r27, r27
    3c08:	aa 27       	eor	r26, r26
    3c0a:	62 17       	cp	r22, r18
    3c0c:	73 07       	cpc	r23, r19
    3c0e:	84 07       	cpc	r24, r20
    3c10:	38 f0       	brcs	.+14     	; 0x3c20 <__divsf3_pse+0x26>
    3c12:	9f 5f       	subi	r25, 0xFF	; 255
    3c14:	5f 4f       	sbci	r21, 0xFF	; 255
    3c16:	22 0f       	add	r18, r18
    3c18:	33 1f       	adc	r19, r19
    3c1a:	44 1f       	adc	r20, r20
    3c1c:	aa 1f       	adc	r26, r26
    3c1e:	a9 f3       	breq	.-22     	; 0x3c0a <__divsf3_pse+0x10>
    3c20:	33 d0       	rcall	.+102    	; 0x3c88 <__divsf3_pse+0x8e>
    3c22:	0e 2e       	mov	r0, r30
    3c24:	3a f0       	brmi	.+14     	; 0x3c34 <__divsf3_pse+0x3a>
    3c26:	e0 e8       	ldi	r30, 0x80	; 128
    3c28:	30 d0       	rcall	.+96     	; 0x3c8a <__divsf3_pse+0x90>
    3c2a:	91 50       	subi	r25, 0x01	; 1
    3c2c:	50 40       	sbci	r21, 0x00	; 0
    3c2e:	e6 95       	lsr	r30
    3c30:	00 1c       	adc	r0, r0
    3c32:	ca f7       	brpl	.-14     	; 0x3c26 <__divsf3_pse+0x2c>
    3c34:	29 d0       	rcall	.+82     	; 0x3c88 <__divsf3_pse+0x8e>
    3c36:	fe 2f       	mov	r31, r30
    3c38:	27 d0       	rcall	.+78     	; 0x3c88 <__divsf3_pse+0x8e>
    3c3a:	66 0f       	add	r22, r22
    3c3c:	77 1f       	adc	r23, r23
    3c3e:	88 1f       	adc	r24, r24
    3c40:	bb 1f       	adc	r27, r27
    3c42:	26 17       	cp	r18, r22
    3c44:	37 07       	cpc	r19, r23
    3c46:	48 07       	cpc	r20, r24
    3c48:	ab 07       	cpc	r26, r27
    3c4a:	b0 e8       	ldi	r27, 0x80	; 128
    3c4c:	09 f0       	breq	.+2      	; 0x3c50 <__divsf3_pse+0x56>
    3c4e:	bb 0b       	sbc	r27, r27
    3c50:	80 2d       	mov	r24, r0
    3c52:	bf 01       	movw	r22, r30
    3c54:	ff 27       	eor	r31, r31
    3c56:	93 58       	subi	r25, 0x83	; 131
    3c58:	5f 4f       	sbci	r21, 0xFF	; 255
    3c5a:	2a f0       	brmi	.+10     	; 0x3c66 <__divsf3_pse+0x6c>
    3c5c:	9e 3f       	cpi	r25, 0xFE	; 254
    3c5e:	51 05       	cpc	r21, r1
    3c60:	68 f0       	brcs	.+26     	; 0x3c7c <__divsf3_pse+0x82>
    3c62:	c9 c0       	rjmp	.+402    	; 0x3df6 <__fp_inf>
    3c64:	53 c1       	rjmp	.+678    	; 0x3f0c <__fp_szero>
    3c66:	5f 3f       	cpi	r21, 0xFF	; 255
    3c68:	ec f3       	brlt	.-6      	; 0x3c64 <__divsf3_pse+0x6a>
    3c6a:	98 3e       	cpi	r25, 0xE8	; 232
    3c6c:	dc f3       	brlt	.-10     	; 0x3c64 <__divsf3_pse+0x6a>
    3c6e:	86 95       	lsr	r24
    3c70:	77 95       	ror	r23
    3c72:	67 95       	ror	r22
    3c74:	b7 95       	ror	r27
    3c76:	f7 95       	ror	r31
    3c78:	9f 5f       	subi	r25, 0xFF	; 255
    3c7a:	c9 f7       	brne	.-14     	; 0x3c6e <__divsf3_pse+0x74>
    3c7c:	88 0f       	add	r24, r24
    3c7e:	91 1d       	adc	r25, r1
    3c80:	96 95       	lsr	r25
    3c82:	87 95       	ror	r24
    3c84:	97 f9       	bld	r25, 7
    3c86:	08 95       	ret
    3c88:	e1 e0       	ldi	r30, 0x01	; 1
    3c8a:	66 0f       	add	r22, r22
    3c8c:	77 1f       	adc	r23, r23
    3c8e:	88 1f       	adc	r24, r24
    3c90:	bb 1f       	adc	r27, r27
    3c92:	62 17       	cp	r22, r18
    3c94:	73 07       	cpc	r23, r19
    3c96:	84 07       	cpc	r24, r20
    3c98:	ba 07       	cpc	r27, r26
    3c9a:	20 f0       	brcs	.+8      	; 0x3ca4 <__divsf3_pse+0xaa>
    3c9c:	62 1b       	sub	r22, r18
    3c9e:	73 0b       	sbc	r23, r19
    3ca0:	84 0b       	sbc	r24, r20
    3ca2:	ba 0b       	sbc	r27, r26
    3ca4:	ee 1f       	adc	r30, r30
    3ca6:	88 f7       	brcc	.-30     	; 0x3c8a <__divsf3_pse+0x90>
    3ca8:	e0 95       	com	r30
    3caa:	08 95       	ret

00003cac <__fixsfsi>:
    3cac:	04 d0       	rcall	.+8      	; 0x3cb6 <__fixunssfsi>
    3cae:	68 94       	set
    3cb0:	b1 11       	cpse	r27, r1
    3cb2:	2c c1       	rjmp	.+600    	; 0x3f0c <__fp_szero>
    3cb4:	08 95       	ret

00003cb6 <__fixunssfsi>:
    3cb6:	f8 d0       	rcall	.+496    	; 0x3ea8 <__fp_splitA>
    3cb8:	88 f0       	brcs	.+34     	; 0x3cdc <__fixunssfsi+0x26>
    3cba:	9f 57       	subi	r25, 0x7F	; 127
    3cbc:	90 f0       	brcs	.+36     	; 0x3ce2 <__fixunssfsi+0x2c>
    3cbe:	b9 2f       	mov	r27, r25
    3cc0:	99 27       	eor	r25, r25
    3cc2:	b7 51       	subi	r27, 0x17	; 23
    3cc4:	a0 f0       	brcs	.+40     	; 0x3cee <__fixunssfsi+0x38>
    3cc6:	d1 f0       	breq	.+52     	; 0x3cfc <__fixunssfsi+0x46>
    3cc8:	66 0f       	add	r22, r22
    3cca:	77 1f       	adc	r23, r23
    3ccc:	88 1f       	adc	r24, r24
    3cce:	99 1f       	adc	r25, r25
    3cd0:	1a f0       	brmi	.+6      	; 0x3cd8 <__fixunssfsi+0x22>
    3cd2:	ba 95       	dec	r27
    3cd4:	c9 f7       	brne	.-14     	; 0x3cc8 <__fixunssfsi+0x12>
    3cd6:	12 c0       	rjmp	.+36     	; 0x3cfc <__fixunssfsi+0x46>
    3cd8:	b1 30       	cpi	r27, 0x01	; 1
    3cda:	81 f0       	breq	.+32     	; 0x3cfc <__fixunssfsi+0x46>
    3cdc:	16 d1       	rcall	.+556    	; 0x3f0a <__fp_zero>
    3cde:	b1 e0       	ldi	r27, 0x01	; 1
    3ce0:	08 95       	ret
    3ce2:	13 c1       	rjmp	.+550    	; 0x3f0a <__fp_zero>
    3ce4:	67 2f       	mov	r22, r23
    3ce6:	78 2f       	mov	r23, r24
    3ce8:	88 27       	eor	r24, r24
    3cea:	b8 5f       	subi	r27, 0xF8	; 248
    3cec:	39 f0       	breq	.+14     	; 0x3cfc <__fixunssfsi+0x46>
    3cee:	b9 3f       	cpi	r27, 0xF9	; 249
    3cf0:	cc f3       	brlt	.-14     	; 0x3ce4 <__fixunssfsi+0x2e>
    3cf2:	86 95       	lsr	r24
    3cf4:	77 95       	ror	r23
    3cf6:	67 95       	ror	r22
    3cf8:	b3 95       	inc	r27
    3cfa:	d9 f7       	brne	.-10     	; 0x3cf2 <__fixunssfsi+0x3c>
    3cfc:	3e f4       	brtc	.+14     	; 0x3d0c <__fixunssfsi+0x56>
    3cfe:	90 95       	com	r25
    3d00:	80 95       	com	r24
    3d02:	70 95       	com	r23
    3d04:	61 95       	neg	r22
    3d06:	7f 4f       	sbci	r23, 0xFF	; 255
    3d08:	8f 4f       	sbci	r24, 0xFF	; 255
    3d0a:	9f 4f       	sbci	r25, 0xFF	; 255
    3d0c:	08 95       	ret

00003d0e <__floatunsisf>:
    3d0e:	e8 94       	clt
    3d10:	09 c0       	rjmp	.+18     	; 0x3d24 <__floatsisf+0x12>

00003d12 <__floatsisf>:
    3d12:	97 fb       	bst	r25, 7
    3d14:	3e f4       	brtc	.+14     	; 0x3d24 <__floatsisf+0x12>
    3d16:	90 95       	com	r25
    3d18:	80 95       	com	r24
    3d1a:	70 95       	com	r23
    3d1c:	61 95       	neg	r22
    3d1e:	7f 4f       	sbci	r23, 0xFF	; 255
    3d20:	8f 4f       	sbci	r24, 0xFF	; 255
    3d22:	9f 4f       	sbci	r25, 0xFF	; 255
    3d24:	99 23       	and	r25, r25
    3d26:	a9 f0       	breq	.+42     	; 0x3d52 <__floatsisf+0x40>
    3d28:	f9 2f       	mov	r31, r25
    3d2a:	96 e9       	ldi	r25, 0x96	; 150
    3d2c:	bb 27       	eor	r27, r27
    3d2e:	93 95       	inc	r25
    3d30:	f6 95       	lsr	r31
    3d32:	87 95       	ror	r24
    3d34:	77 95       	ror	r23
    3d36:	67 95       	ror	r22
    3d38:	b7 95       	ror	r27
    3d3a:	f1 11       	cpse	r31, r1
    3d3c:	f8 cf       	rjmp	.-16     	; 0x3d2e <__floatsisf+0x1c>
    3d3e:	fa f4       	brpl	.+62     	; 0x3d7e <__floatsisf+0x6c>
    3d40:	bb 0f       	add	r27, r27
    3d42:	11 f4       	brne	.+4      	; 0x3d48 <__floatsisf+0x36>
    3d44:	60 ff       	sbrs	r22, 0
    3d46:	1b c0       	rjmp	.+54     	; 0x3d7e <__floatsisf+0x6c>
    3d48:	6f 5f       	subi	r22, 0xFF	; 255
    3d4a:	7f 4f       	sbci	r23, 0xFF	; 255
    3d4c:	8f 4f       	sbci	r24, 0xFF	; 255
    3d4e:	9f 4f       	sbci	r25, 0xFF	; 255
    3d50:	16 c0       	rjmp	.+44     	; 0x3d7e <__floatsisf+0x6c>
    3d52:	88 23       	and	r24, r24
    3d54:	11 f0       	breq	.+4      	; 0x3d5a <__floatsisf+0x48>
    3d56:	96 e9       	ldi	r25, 0x96	; 150
    3d58:	11 c0       	rjmp	.+34     	; 0x3d7c <__floatsisf+0x6a>
    3d5a:	77 23       	and	r23, r23
    3d5c:	21 f0       	breq	.+8      	; 0x3d66 <__floatsisf+0x54>
    3d5e:	9e e8       	ldi	r25, 0x8E	; 142
    3d60:	87 2f       	mov	r24, r23
    3d62:	76 2f       	mov	r23, r22
    3d64:	05 c0       	rjmp	.+10     	; 0x3d70 <__floatsisf+0x5e>
    3d66:	66 23       	and	r22, r22
    3d68:	71 f0       	breq	.+28     	; 0x3d86 <__floatsisf+0x74>
    3d6a:	96 e8       	ldi	r25, 0x86	; 134
    3d6c:	86 2f       	mov	r24, r22
    3d6e:	70 e0       	ldi	r23, 0x00	; 0
    3d70:	60 e0       	ldi	r22, 0x00	; 0
    3d72:	2a f0       	brmi	.+10     	; 0x3d7e <__floatsisf+0x6c>
    3d74:	9a 95       	dec	r25
    3d76:	66 0f       	add	r22, r22
    3d78:	77 1f       	adc	r23, r23
    3d7a:	88 1f       	adc	r24, r24
    3d7c:	da f7       	brpl	.-10     	; 0x3d74 <__floatsisf+0x62>
    3d7e:	88 0f       	add	r24, r24
    3d80:	96 95       	lsr	r25
    3d82:	87 95       	ror	r24
    3d84:	97 f9       	bld	r25, 7
    3d86:	08 95       	ret

00003d88 <floor>:
    3d88:	a9 d0       	rcall	.+338    	; 0x3edc <__fp_trunc>
    3d8a:	80 f0       	brcs	.+32     	; 0x3dac <floor+0x24>
    3d8c:	9f 37       	cpi	r25, 0x7F	; 127
    3d8e:	40 f4       	brcc	.+16     	; 0x3da0 <floor+0x18>
    3d90:	91 11       	cpse	r25, r1
    3d92:	0e f0       	brts	.+2      	; 0x3d96 <floor+0xe>
    3d94:	bb c0       	rjmp	.+374    	; 0x3f0c <__fp_szero>
    3d96:	60 e0       	ldi	r22, 0x00	; 0
    3d98:	70 e0       	ldi	r23, 0x00	; 0
    3d9a:	80 e8       	ldi	r24, 0x80	; 128
    3d9c:	9f eb       	ldi	r25, 0xBF	; 191
    3d9e:	08 95       	ret
    3da0:	26 f4       	brtc	.+8      	; 0x3daa <floor+0x22>
    3da2:	1b 16       	cp	r1, r27
    3da4:	61 1d       	adc	r22, r1
    3da6:	71 1d       	adc	r23, r1
    3da8:	81 1d       	adc	r24, r1
    3daa:	2b c0       	rjmp	.+86     	; 0x3e02 <__fp_mintl>
    3dac:	45 c0       	rjmp	.+138    	; 0x3e38 <__fp_mpack>

00003dae <__fp_cmp>:
    3dae:	99 0f       	add	r25, r25
    3db0:	00 08       	sbc	r0, r0
    3db2:	55 0f       	add	r21, r21
    3db4:	aa 0b       	sbc	r26, r26
    3db6:	e0 e8       	ldi	r30, 0x80	; 128
    3db8:	fe ef       	ldi	r31, 0xFE	; 254
    3dba:	16 16       	cp	r1, r22
    3dbc:	17 06       	cpc	r1, r23
    3dbe:	e8 07       	cpc	r30, r24
    3dc0:	f9 07       	cpc	r31, r25
    3dc2:	c0 f0       	brcs	.+48     	; 0x3df4 <__fp_cmp+0x46>
    3dc4:	12 16       	cp	r1, r18
    3dc6:	13 06       	cpc	r1, r19
    3dc8:	e4 07       	cpc	r30, r20
    3dca:	f5 07       	cpc	r31, r21
    3dcc:	98 f0       	brcs	.+38     	; 0x3df4 <__fp_cmp+0x46>
    3dce:	62 1b       	sub	r22, r18
    3dd0:	73 0b       	sbc	r23, r19
    3dd2:	84 0b       	sbc	r24, r20
    3dd4:	95 0b       	sbc	r25, r21
    3dd6:	39 f4       	brne	.+14     	; 0x3de6 <__fp_cmp+0x38>
    3dd8:	0a 26       	eor	r0, r26
    3dda:	61 f0       	breq	.+24     	; 0x3df4 <__fp_cmp+0x46>
    3ddc:	23 2b       	or	r18, r19
    3dde:	24 2b       	or	r18, r20
    3de0:	25 2b       	or	r18, r21
    3de2:	21 f4       	brne	.+8      	; 0x3dec <__fp_cmp+0x3e>
    3de4:	08 95       	ret
    3de6:	0a 26       	eor	r0, r26
    3de8:	09 f4       	brne	.+2      	; 0x3dec <__fp_cmp+0x3e>
    3dea:	a1 40       	sbci	r26, 0x01	; 1
    3dec:	a6 95       	lsr	r26
    3dee:	8f ef       	ldi	r24, 0xFF	; 255
    3df0:	81 1d       	adc	r24, r1
    3df2:	81 1d       	adc	r24, r1
    3df4:	08 95       	ret

00003df6 <__fp_inf>:
    3df6:	97 f9       	bld	r25, 7
    3df8:	9f 67       	ori	r25, 0x7F	; 127
    3dfa:	80 e8       	ldi	r24, 0x80	; 128
    3dfc:	70 e0       	ldi	r23, 0x00	; 0
    3dfe:	60 e0       	ldi	r22, 0x00	; 0
    3e00:	08 95       	ret

00003e02 <__fp_mintl>:
    3e02:	88 23       	and	r24, r24
    3e04:	71 f4       	brne	.+28     	; 0x3e22 <__fp_mintl+0x20>
    3e06:	77 23       	and	r23, r23
    3e08:	21 f0       	breq	.+8      	; 0x3e12 <__fp_mintl+0x10>
    3e0a:	98 50       	subi	r25, 0x08	; 8
    3e0c:	87 2b       	or	r24, r23
    3e0e:	76 2f       	mov	r23, r22
    3e10:	07 c0       	rjmp	.+14     	; 0x3e20 <__fp_mintl+0x1e>
    3e12:	66 23       	and	r22, r22
    3e14:	11 f4       	brne	.+4      	; 0x3e1a <__fp_mintl+0x18>
    3e16:	99 27       	eor	r25, r25
    3e18:	0d c0       	rjmp	.+26     	; 0x3e34 <__fp_mintl+0x32>
    3e1a:	90 51       	subi	r25, 0x10	; 16
    3e1c:	86 2b       	or	r24, r22
    3e1e:	70 e0       	ldi	r23, 0x00	; 0
    3e20:	60 e0       	ldi	r22, 0x00	; 0
    3e22:	2a f0       	brmi	.+10     	; 0x3e2e <__fp_mintl+0x2c>
    3e24:	9a 95       	dec	r25
    3e26:	66 0f       	add	r22, r22
    3e28:	77 1f       	adc	r23, r23
    3e2a:	88 1f       	adc	r24, r24
    3e2c:	da f7       	brpl	.-10     	; 0x3e24 <__fp_mintl+0x22>
    3e2e:	88 0f       	add	r24, r24
    3e30:	96 95       	lsr	r25
    3e32:	87 95       	ror	r24
    3e34:	97 f9       	bld	r25, 7
    3e36:	08 95       	ret

00003e38 <__fp_mpack>:
    3e38:	9f 3f       	cpi	r25, 0xFF	; 255
    3e3a:	31 f0       	breq	.+12     	; 0x3e48 <__fp_mpack_finite+0xc>

00003e3c <__fp_mpack_finite>:
    3e3c:	91 50       	subi	r25, 0x01	; 1
    3e3e:	20 f4       	brcc	.+8      	; 0x3e48 <__fp_mpack_finite+0xc>
    3e40:	87 95       	ror	r24
    3e42:	77 95       	ror	r23
    3e44:	67 95       	ror	r22
    3e46:	b7 95       	ror	r27
    3e48:	88 0f       	add	r24, r24
    3e4a:	91 1d       	adc	r25, r1
    3e4c:	96 95       	lsr	r25
    3e4e:	87 95       	ror	r24
    3e50:	97 f9       	bld	r25, 7
    3e52:	08 95       	ret

00003e54 <__fp_nan>:
    3e54:	9f ef       	ldi	r25, 0xFF	; 255
    3e56:	80 ec       	ldi	r24, 0xC0	; 192
    3e58:	08 95       	ret

00003e5a <__fp_pscA>:
    3e5a:	00 24       	eor	r0, r0
    3e5c:	0a 94       	dec	r0
    3e5e:	16 16       	cp	r1, r22
    3e60:	17 06       	cpc	r1, r23
    3e62:	18 06       	cpc	r1, r24
    3e64:	09 06       	cpc	r0, r25
    3e66:	08 95       	ret

00003e68 <__fp_pscB>:
    3e68:	00 24       	eor	r0, r0
    3e6a:	0a 94       	dec	r0
    3e6c:	12 16       	cp	r1, r18
    3e6e:	13 06       	cpc	r1, r19
    3e70:	14 06       	cpc	r1, r20
    3e72:	05 06       	cpc	r0, r21
    3e74:	08 95       	ret

00003e76 <__fp_round>:
    3e76:	09 2e       	mov	r0, r25
    3e78:	03 94       	inc	r0
    3e7a:	00 0c       	add	r0, r0
    3e7c:	11 f4       	brne	.+4      	; 0x3e82 <__fp_round+0xc>
    3e7e:	88 23       	and	r24, r24
    3e80:	52 f0       	brmi	.+20     	; 0x3e96 <__fp_round+0x20>
    3e82:	bb 0f       	add	r27, r27
    3e84:	40 f4       	brcc	.+16     	; 0x3e96 <__fp_round+0x20>
    3e86:	bf 2b       	or	r27, r31
    3e88:	11 f4       	brne	.+4      	; 0x3e8e <__fp_round+0x18>
    3e8a:	60 ff       	sbrs	r22, 0
    3e8c:	04 c0       	rjmp	.+8      	; 0x3e96 <__fp_round+0x20>
    3e8e:	6f 5f       	subi	r22, 0xFF	; 255
    3e90:	7f 4f       	sbci	r23, 0xFF	; 255
    3e92:	8f 4f       	sbci	r24, 0xFF	; 255
    3e94:	9f 4f       	sbci	r25, 0xFF	; 255
    3e96:	08 95       	ret

00003e98 <__fp_split3>:
    3e98:	57 fd       	sbrc	r21, 7
    3e9a:	90 58       	subi	r25, 0x80	; 128
    3e9c:	44 0f       	add	r20, r20
    3e9e:	55 1f       	adc	r21, r21
    3ea0:	59 f0       	breq	.+22     	; 0x3eb8 <__fp_splitA+0x10>
    3ea2:	5f 3f       	cpi	r21, 0xFF	; 255
    3ea4:	71 f0       	breq	.+28     	; 0x3ec2 <__fp_splitA+0x1a>
    3ea6:	47 95       	ror	r20

00003ea8 <__fp_splitA>:
    3ea8:	88 0f       	add	r24, r24
    3eaa:	97 fb       	bst	r25, 7
    3eac:	99 1f       	adc	r25, r25
    3eae:	61 f0       	breq	.+24     	; 0x3ec8 <__fp_splitA+0x20>
    3eb0:	9f 3f       	cpi	r25, 0xFF	; 255
    3eb2:	79 f0       	breq	.+30     	; 0x3ed2 <__fp_splitA+0x2a>
    3eb4:	87 95       	ror	r24
    3eb6:	08 95       	ret
    3eb8:	12 16       	cp	r1, r18
    3eba:	13 06       	cpc	r1, r19
    3ebc:	14 06       	cpc	r1, r20
    3ebe:	55 1f       	adc	r21, r21
    3ec0:	f2 cf       	rjmp	.-28     	; 0x3ea6 <__fp_split3+0xe>
    3ec2:	46 95       	lsr	r20
    3ec4:	f1 df       	rcall	.-30     	; 0x3ea8 <__fp_splitA>
    3ec6:	08 c0       	rjmp	.+16     	; 0x3ed8 <__fp_splitA+0x30>
    3ec8:	16 16       	cp	r1, r22
    3eca:	17 06       	cpc	r1, r23
    3ecc:	18 06       	cpc	r1, r24
    3ece:	99 1f       	adc	r25, r25
    3ed0:	f1 cf       	rjmp	.-30     	; 0x3eb4 <__fp_splitA+0xc>
    3ed2:	86 95       	lsr	r24
    3ed4:	71 05       	cpc	r23, r1
    3ed6:	61 05       	cpc	r22, r1
    3ed8:	08 94       	sec
    3eda:	08 95       	ret

00003edc <__fp_trunc>:
    3edc:	e5 df       	rcall	.-54     	; 0x3ea8 <__fp_splitA>
    3ede:	a0 f0       	brcs	.+40     	; 0x3f08 <__fp_trunc+0x2c>
    3ee0:	be e7       	ldi	r27, 0x7E	; 126
    3ee2:	b9 17       	cp	r27, r25
    3ee4:	88 f4       	brcc	.+34     	; 0x3f08 <__fp_trunc+0x2c>
    3ee6:	bb 27       	eor	r27, r27
    3ee8:	9f 38       	cpi	r25, 0x8F	; 143
    3eea:	60 f4       	brcc	.+24     	; 0x3f04 <__fp_trunc+0x28>
    3eec:	16 16       	cp	r1, r22
    3eee:	b1 1d       	adc	r27, r1
    3ef0:	67 2f       	mov	r22, r23
    3ef2:	78 2f       	mov	r23, r24
    3ef4:	88 27       	eor	r24, r24
    3ef6:	98 5f       	subi	r25, 0xF8	; 248
    3ef8:	f7 cf       	rjmp	.-18     	; 0x3ee8 <__fp_trunc+0xc>
    3efa:	86 95       	lsr	r24
    3efc:	77 95       	ror	r23
    3efe:	67 95       	ror	r22
    3f00:	b1 1d       	adc	r27, r1
    3f02:	93 95       	inc	r25
    3f04:	96 39       	cpi	r25, 0x96	; 150
    3f06:	c8 f3       	brcs	.-14     	; 0x3efa <__fp_trunc+0x1e>
    3f08:	08 95       	ret

00003f0a <__fp_zero>:
    3f0a:	e8 94       	clt

00003f0c <__fp_szero>:
    3f0c:	bb 27       	eor	r27, r27
    3f0e:	66 27       	eor	r22, r22
    3f10:	77 27       	eor	r23, r23
    3f12:	cb 01       	movw	r24, r22
    3f14:	97 f9       	bld	r25, 7
    3f16:	08 95       	ret

00003f18 <__gesf2>:
    3f18:	4a df       	rcall	.-364    	; 0x3dae <__fp_cmp>
    3f1a:	08 f4       	brcc	.+2      	; 0x3f1e <__gesf2+0x6>
    3f1c:	8f ef       	ldi	r24, 0xFF	; 255
    3f1e:	08 95       	ret

00003f20 <__mulsf3>:
    3f20:	0b d0       	rcall	.+22     	; 0x3f38 <__mulsf3x>
    3f22:	a9 cf       	rjmp	.-174    	; 0x3e76 <__fp_round>
    3f24:	9a df       	rcall	.-204    	; 0x3e5a <__fp_pscA>
    3f26:	28 f0       	brcs	.+10     	; 0x3f32 <__mulsf3+0x12>
    3f28:	9f df       	rcall	.-194    	; 0x3e68 <__fp_pscB>
    3f2a:	18 f0       	brcs	.+6      	; 0x3f32 <__mulsf3+0x12>
    3f2c:	95 23       	and	r25, r21
    3f2e:	09 f0       	breq	.+2      	; 0x3f32 <__mulsf3+0x12>
    3f30:	62 cf       	rjmp	.-316    	; 0x3df6 <__fp_inf>
    3f32:	90 cf       	rjmp	.-224    	; 0x3e54 <__fp_nan>
    3f34:	11 24       	eor	r1, r1
    3f36:	ea cf       	rjmp	.-44     	; 0x3f0c <__fp_szero>

00003f38 <__mulsf3x>:
    3f38:	af df       	rcall	.-162    	; 0x3e98 <__fp_split3>
    3f3a:	a0 f3       	brcs	.-24     	; 0x3f24 <__mulsf3+0x4>

00003f3c <__mulsf3_pse>:
    3f3c:	95 9f       	mul	r25, r21
    3f3e:	d1 f3       	breq	.-12     	; 0x3f34 <__mulsf3+0x14>
    3f40:	95 0f       	add	r25, r21
    3f42:	50 e0       	ldi	r21, 0x00	; 0
    3f44:	55 1f       	adc	r21, r21
    3f46:	62 9f       	mul	r22, r18
    3f48:	f0 01       	movw	r30, r0
    3f4a:	72 9f       	mul	r23, r18
    3f4c:	bb 27       	eor	r27, r27
    3f4e:	f0 0d       	add	r31, r0
    3f50:	b1 1d       	adc	r27, r1
    3f52:	63 9f       	mul	r22, r19
    3f54:	aa 27       	eor	r26, r26
    3f56:	f0 0d       	add	r31, r0
    3f58:	b1 1d       	adc	r27, r1
    3f5a:	aa 1f       	adc	r26, r26
    3f5c:	64 9f       	mul	r22, r20
    3f5e:	66 27       	eor	r22, r22
    3f60:	b0 0d       	add	r27, r0
    3f62:	a1 1d       	adc	r26, r1
    3f64:	66 1f       	adc	r22, r22
    3f66:	82 9f       	mul	r24, r18
    3f68:	22 27       	eor	r18, r18
    3f6a:	b0 0d       	add	r27, r0
    3f6c:	a1 1d       	adc	r26, r1
    3f6e:	62 1f       	adc	r22, r18
    3f70:	73 9f       	mul	r23, r19
    3f72:	b0 0d       	add	r27, r0
    3f74:	a1 1d       	adc	r26, r1
    3f76:	62 1f       	adc	r22, r18
    3f78:	83 9f       	mul	r24, r19
    3f7a:	a0 0d       	add	r26, r0
    3f7c:	61 1d       	adc	r22, r1
    3f7e:	22 1f       	adc	r18, r18
    3f80:	74 9f       	mul	r23, r20
    3f82:	33 27       	eor	r19, r19
    3f84:	a0 0d       	add	r26, r0
    3f86:	61 1d       	adc	r22, r1
    3f88:	23 1f       	adc	r18, r19
    3f8a:	84 9f       	mul	r24, r20
    3f8c:	60 0d       	add	r22, r0
    3f8e:	21 1d       	adc	r18, r1
    3f90:	82 2f       	mov	r24, r18
    3f92:	76 2f       	mov	r23, r22
    3f94:	6a 2f       	mov	r22, r26
    3f96:	11 24       	eor	r1, r1
    3f98:	9f 57       	subi	r25, 0x7F	; 127
    3f9a:	50 40       	sbci	r21, 0x00	; 0
    3f9c:	8a f0       	brmi	.+34     	; 0x3fc0 <__mulsf3_pse+0x84>
    3f9e:	e1 f0       	breq	.+56     	; 0x3fd8 <__mulsf3_pse+0x9c>
    3fa0:	88 23       	and	r24, r24
    3fa2:	4a f0       	brmi	.+18     	; 0x3fb6 <__mulsf3_pse+0x7a>
    3fa4:	ee 0f       	add	r30, r30
    3fa6:	ff 1f       	adc	r31, r31
    3fa8:	bb 1f       	adc	r27, r27
    3faa:	66 1f       	adc	r22, r22
    3fac:	77 1f       	adc	r23, r23
    3fae:	88 1f       	adc	r24, r24
    3fb0:	91 50       	subi	r25, 0x01	; 1
    3fb2:	50 40       	sbci	r21, 0x00	; 0
    3fb4:	a9 f7       	brne	.-22     	; 0x3fa0 <__mulsf3_pse+0x64>
    3fb6:	9e 3f       	cpi	r25, 0xFE	; 254
    3fb8:	51 05       	cpc	r21, r1
    3fba:	70 f0       	brcs	.+28     	; 0x3fd8 <__mulsf3_pse+0x9c>
    3fbc:	1c cf       	rjmp	.-456    	; 0x3df6 <__fp_inf>
    3fbe:	a6 cf       	rjmp	.-180    	; 0x3f0c <__fp_szero>
    3fc0:	5f 3f       	cpi	r21, 0xFF	; 255
    3fc2:	ec f3       	brlt	.-6      	; 0x3fbe <__mulsf3_pse+0x82>
    3fc4:	98 3e       	cpi	r25, 0xE8	; 232
    3fc6:	dc f3       	brlt	.-10     	; 0x3fbe <__mulsf3_pse+0x82>
    3fc8:	86 95       	lsr	r24
    3fca:	77 95       	ror	r23
    3fcc:	67 95       	ror	r22
    3fce:	b7 95       	ror	r27
    3fd0:	f7 95       	ror	r31
    3fd2:	e7 95       	ror	r30
    3fd4:	9f 5f       	subi	r25, 0xFF	; 255
    3fd6:	c1 f7       	brne	.-16     	; 0x3fc8 <__mulsf3_pse+0x8c>
    3fd8:	fe 2b       	or	r31, r30
    3fda:	88 0f       	add	r24, r24
    3fdc:	91 1d       	adc	r25, r1
    3fde:	96 95       	lsr	r25
    3fe0:	87 95       	ror	r24
    3fe2:	97 f9       	bld	r25, 7
    3fe4:	08 95       	ret

00003fe6 <__udivmodqi4>:
    3fe6:	99 1b       	sub	r25, r25
    3fe8:	79 e0       	ldi	r23, 0x09	; 9
    3fea:	04 c0       	rjmp	.+8      	; 0x3ff4 <__udivmodqi4_ep>

00003fec <__udivmodqi4_loop>:
    3fec:	99 1f       	adc	r25, r25
    3fee:	96 17       	cp	r25, r22
    3ff0:	08 f0       	brcs	.+2      	; 0x3ff4 <__udivmodqi4_ep>
    3ff2:	96 1b       	sub	r25, r22

00003ff4 <__udivmodqi4_ep>:
    3ff4:	88 1f       	adc	r24, r24
    3ff6:	7a 95       	dec	r23
    3ff8:	c9 f7       	brne	.-14     	; 0x3fec <__udivmodqi4_loop>
    3ffa:	80 95       	com	r24
    3ffc:	08 95       	ret

00003ffe <__udivmodhi4>:
    3ffe:	aa 1b       	sub	r26, r26
    4000:	bb 1b       	sub	r27, r27
    4002:	51 e1       	ldi	r21, 0x11	; 17
    4004:	07 c0       	rjmp	.+14     	; 0x4014 <__udivmodhi4_ep>

00004006 <__udivmodhi4_loop>:
    4006:	aa 1f       	adc	r26, r26
    4008:	bb 1f       	adc	r27, r27
    400a:	a6 17       	cp	r26, r22
    400c:	b7 07       	cpc	r27, r23
    400e:	10 f0       	brcs	.+4      	; 0x4014 <__udivmodhi4_ep>
    4010:	a6 1b       	sub	r26, r22
    4012:	b7 0b       	sbc	r27, r23

00004014 <__udivmodhi4_ep>:
    4014:	88 1f       	adc	r24, r24
    4016:	99 1f       	adc	r25, r25
    4018:	5a 95       	dec	r21
    401a:	a9 f7       	brne	.-22     	; 0x4006 <__udivmodhi4_loop>
    401c:	80 95       	com	r24
    401e:	90 95       	com	r25
    4020:	bc 01       	movw	r22, r24
    4022:	cd 01       	movw	r24, r26
    4024:	08 95       	ret

00004026 <__divmodhi4>:
    4026:	97 fb       	bst	r25, 7
    4028:	07 2e       	mov	r0, r23
    402a:	16 f4       	brtc	.+4      	; 0x4030 <__divmodhi4+0xa>
    402c:	00 94       	com	r0
    402e:	06 d0       	rcall	.+12     	; 0x403c <__divmodhi4_neg1>
    4030:	77 fd       	sbrc	r23, 7
    4032:	08 d0       	rcall	.+16     	; 0x4044 <__divmodhi4_neg2>
    4034:	e4 df       	rcall	.-56     	; 0x3ffe <__udivmodhi4>
    4036:	07 fc       	sbrc	r0, 7
    4038:	05 d0       	rcall	.+10     	; 0x4044 <__divmodhi4_neg2>
    403a:	3e f4       	brtc	.+14     	; 0x404a <__divmodhi4_exit>

0000403c <__divmodhi4_neg1>:
    403c:	90 95       	com	r25
    403e:	81 95       	neg	r24
    4040:	9f 4f       	sbci	r25, 0xFF	; 255
    4042:	08 95       	ret

00004044 <__divmodhi4_neg2>:
    4044:	70 95       	com	r23
    4046:	61 95       	neg	r22
    4048:	7f 4f       	sbci	r23, 0xFF	; 255

0000404a <__divmodhi4_exit>:
    404a:	08 95       	ret

0000404c <__tablejump2__>:
    404c:	ee 0f       	add	r30, r30
    404e:	ff 1f       	adc	r31, r31
    4050:	05 90       	lpm	r0, Z+
    4052:	f4 91       	lpm	r31, Z
    4054:	e0 2d       	mov	r30, r0
    4056:	09 94       	ijmp

00004058 <strcpy>:
    4058:	fb 01       	movw	r30, r22
    405a:	dc 01       	movw	r26, r24
    405c:	01 90       	ld	r0, Z+
    405e:	0d 92       	st	X+, r0
    4060:	00 20       	and	r0, r0
    4062:	e1 f7       	brne	.-8      	; 0x405c <strcpy+0x4>
    4064:	08 95       	ret

00004066 <snprintf>:
    4066:	ae e0       	ldi	r26, 0x0E	; 14
    4068:	b0 e0       	ldi	r27, 0x00	; 0
    406a:	e8 e3       	ldi	r30, 0x38	; 56
    406c:	f0 e2       	ldi	r31, 0x20	; 32
    406e:	ce c2       	rjmp	.+1436   	; 0x460c <__prologue_saves__+0x1c>
    4070:	0d 89       	ldd	r16, Y+21	; 0x15
    4072:	1e 89       	ldd	r17, Y+22	; 0x16
    4074:	8f 89       	ldd	r24, Y+23	; 0x17
    4076:	98 8d       	ldd	r25, Y+24	; 0x18
    4078:	26 e0       	ldi	r18, 0x06	; 6
    407a:	2c 83       	std	Y+4, r18	; 0x04
    407c:	1a 83       	std	Y+2, r17	; 0x02
    407e:	09 83       	std	Y+1, r16	; 0x01
    4080:	97 ff       	sbrs	r25, 7
    4082:	02 c0       	rjmp	.+4      	; 0x4088 <snprintf+0x22>
    4084:	80 e0       	ldi	r24, 0x00	; 0
    4086:	90 e8       	ldi	r25, 0x80	; 128
    4088:	01 97       	sbiw	r24, 0x01	; 1
    408a:	9e 83       	std	Y+6, r25	; 0x06
    408c:	8d 83       	std	Y+5, r24	; 0x05
    408e:	ae 01       	movw	r20, r28
    4090:	45 5e       	subi	r20, 0xE5	; 229
    4092:	5f 4f       	sbci	r21, 0xFF	; 255
    4094:	69 8d       	ldd	r22, Y+25	; 0x19
    4096:	7a 8d       	ldd	r23, Y+26	; 0x1a
    4098:	ce 01       	movw	r24, r28
    409a:	01 96       	adiw	r24, 0x01	; 1
    409c:	11 d0       	rcall	.+34     	; 0x40c0 <vfprintf>
    409e:	4d 81       	ldd	r20, Y+5	; 0x05
    40a0:	5e 81       	ldd	r21, Y+6	; 0x06
    40a2:	57 fd       	sbrc	r21, 7
    40a4:	0a c0       	rjmp	.+20     	; 0x40ba <snprintf+0x54>
    40a6:	2f 81       	ldd	r18, Y+7	; 0x07
    40a8:	38 85       	ldd	r19, Y+8	; 0x08
    40aa:	42 17       	cp	r20, r18
    40ac:	53 07       	cpc	r21, r19
    40ae:	0c f4       	brge	.+2      	; 0x40b2 <snprintf+0x4c>
    40b0:	9a 01       	movw	r18, r20
    40b2:	f8 01       	movw	r30, r16
    40b4:	e2 0f       	add	r30, r18
    40b6:	f3 1f       	adc	r31, r19
    40b8:	10 82       	st	Z, r1
    40ba:	2e 96       	adiw	r28, 0x0e	; 14
    40bc:	e4 e0       	ldi	r30, 0x04	; 4
    40be:	c2 c2       	rjmp	.+1412   	; 0x4644 <__epilogue_restores__+0x1c>

000040c0 <vfprintf>:
    40c0:	ab e0       	ldi	r26, 0x0B	; 11
    40c2:	b0 e0       	ldi	r27, 0x00	; 0
    40c4:	e5 e6       	ldi	r30, 0x65	; 101
    40c6:	f0 e2       	ldi	r31, 0x20	; 32
    40c8:	93 c2       	rjmp	.+1318   	; 0x45f0 <__prologue_saves__>
    40ca:	6c 01       	movw	r12, r24
    40cc:	7b 01       	movw	r14, r22
    40ce:	8a 01       	movw	r16, r20
    40d0:	fc 01       	movw	r30, r24
    40d2:	17 82       	std	Z+7, r1	; 0x07
    40d4:	16 82       	std	Z+6, r1	; 0x06
    40d6:	83 81       	ldd	r24, Z+3	; 0x03
    40d8:	81 ff       	sbrs	r24, 1
    40da:	bf c1       	rjmp	.+894    	; 0x445a <vfprintf+0x39a>
    40dc:	ce 01       	movw	r24, r28
    40de:	01 96       	adiw	r24, 0x01	; 1
    40e0:	3c 01       	movw	r6, r24
    40e2:	f6 01       	movw	r30, r12
    40e4:	93 81       	ldd	r25, Z+3	; 0x03
    40e6:	f7 01       	movw	r30, r14
    40e8:	93 fd       	sbrc	r25, 3
    40ea:	85 91       	lpm	r24, Z+
    40ec:	93 ff       	sbrs	r25, 3
    40ee:	81 91       	ld	r24, Z+
    40f0:	7f 01       	movw	r14, r30
    40f2:	88 23       	and	r24, r24
    40f4:	09 f4       	brne	.+2      	; 0x40f8 <vfprintf+0x38>
    40f6:	ad c1       	rjmp	.+858    	; 0x4452 <vfprintf+0x392>
    40f8:	85 32       	cpi	r24, 0x25	; 37
    40fa:	39 f4       	brne	.+14     	; 0x410a <vfprintf+0x4a>
    40fc:	93 fd       	sbrc	r25, 3
    40fe:	85 91       	lpm	r24, Z+
    4100:	93 ff       	sbrs	r25, 3
    4102:	81 91       	ld	r24, Z+
    4104:	7f 01       	movw	r14, r30
    4106:	85 32       	cpi	r24, 0x25	; 37
    4108:	21 f4       	brne	.+8      	; 0x4112 <vfprintf+0x52>
    410a:	b6 01       	movw	r22, r12
    410c:	90 e0       	ldi	r25, 0x00	; 0
    410e:	c0 d1       	rcall	.+896    	; 0x4490 <fputc>
    4110:	e8 cf       	rjmp	.-48     	; 0x40e2 <vfprintf+0x22>
    4112:	91 2c       	mov	r9, r1
    4114:	21 2c       	mov	r2, r1
    4116:	31 2c       	mov	r3, r1
    4118:	ff e1       	ldi	r31, 0x1F	; 31
    411a:	f3 15       	cp	r31, r3
    411c:	d8 f0       	brcs	.+54     	; 0x4154 <vfprintf+0x94>
    411e:	8b 32       	cpi	r24, 0x2B	; 43
    4120:	79 f0       	breq	.+30     	; 0x4140 <vfprintf+0x80>
    4122:	38 f4       	brcc	.+14     	; 0x4132 <vfprintf+0x72>
    4124:	80 32       	cpi	r24, 0x20	; 32
    4126:	79 f0       	breq	.+30     	; 0x4146 <vfprintf+0x86>
    4128:	83 32       	cpi	r24, 0x23	; 35
    412a:	a1 f4       	brne	.+40     	; 0x4154 <vfprintf+0x94>
    412c:	23 2d       	mov	r18, r3
    412e:	20 61       	ori	r18, 0x10	; 16
    4130:	1d c0       	rjmp	.+58     	; 0x416c <vfprintf+0xac>
    4132:	8d 32       	cpi	r24, 0x2D	; 45
    4134:	61 f0       	breq	.+24     	; 0x414e <vfprintf+0x8e>
    4136:	80 33       	cpi	r24, 0x30	; 48
    4138:	69 f4       	brne	.+26     	; 0x4154 <vfprintf+0x94>
    413a:	23 2d       	mov	r18, r3
    413c:	21 60       	ori	r18, 0x01	; 1
    413e:	16 c0       	rjmp	.+44     	; 0x416c <vfprintf+0xac>
    4140:	83 2d       	mov	r24, r3
    4142:	82 60       	ori	r24, 0x02	; 2
    4144:	38 2e       	mov	r3, r24
    4146:	e3 2d       	mov	r30, r3
    4148:	e4 60       	ori	r30, 0x04	; 4
    414a:	3e 2e       	mov	r3, r30
    414c:	2a c0       	rjmp	.+84     	; 0x41a2 <vfprintf+0xe2>
    414e:	f3 2d       	mov	r31, r3
    4150:	f8 60       	ori	r31, 0x08	; 8
    4152:	1d c0       	rjmp	.+58     	; 0x418e <vfprintf+0xce>
    4154:	37 fc       	sbrc	r3, 7
    4156:	2d c0       	rjmp	.+90     	; 0x41b2 <vfprintf+0xf2>
    4158:	20 ed       	ldi	r18, 0xD0	; 208
    415a:	28 0f       	add	r18, r24
    415c:	2a 30       	cpi	r18, 0x0A	; 10
    415e:	40 f0       	brcs	.+16     	; 0x4170 <vfprintf+0xb0>
    4160:	8e 32       	cpi	r24, 0x2E	; 46
    4162:	b9 f4       	brne	.+46     	; 0x4192 <vfprintf+0xd2>
    4164:	36 fc       	sbrc	r3, 6
    4166:	75 c1       	rjmp	.+746    	; 0x4452 <vfprintf+0x392>
    4168:	23 2d       	mov	r18, r3
    416a:	20 64       	ori	r18, 0x40	; 64
    416c:	32 2e       	mov	r3, r18
    416e:	19 c0       	rjmp	.+50     	; 0x41a2 <vfprintf+0xe2>
    4170:	36 fe       	sbrs	r3, 6
    4172:	06 c0       	rjmp	.+12     	; 0x4180 <vfprintf+0xc0>
    4174:	8a e0       	ldi	r24, 0x0A	; 10
    4176:	98 9e       	mul	r9, r24
    4178:	20 0d       	add	r18, r0
    417a:	11 24       	eor	r1, r1
    417c:	92 2e       	mov	r9, r18
    417e:	11 c0       	rjmp	.+34     	; 0x41a2 <vfprintf+0xe2>
    4180:	ea e0       	ldi	r30, 0x0A	; 10
    4182:	2e 9e       	mul	r2, r30
    4184:	20 0d       	add	r18, r0
    4186:	11 24       	eor	r1, r1
    4188:	22 2e       	mov	r2, r18
    418a:	f3 2d       	mov	r31, r3
    418c:	f0 62       	ori	r31, 0x20	; 32
    418e:	3f 2e       	mov	r3, r31
    4190:	08 c0       	rjmp	.+16     	; 0x41a2 <vfprintf+0xe2>
    4192:	8c 36       	cpi	r24, 0x6C	; 108
    4194:	21 f4       	brne	.+8      	; 0x419e <vfprintf+0xde>
    4196:	83 2d       	mov	r24, r3
    4198:	80 68       	ori	r24, 0x80	; 128
    419a:	38 2e       	mov	r3, r24
    419c:	02 c0       	rjmp	.+4      	; 0x41a2 <vfprintf+0xe2>
    419e:	88 36       	cpi	r24, 0x68	; 104
    41a0:	41 f4       	brne	.+16     	; 0x41b2 <vfprintf+0xf2>
    41a2:	f7 01       	movw	r30, r14
    41a4:	93 fd       	sbrc	r25, 3
    41a6:	85 91       	lpm	r24, Z+
    41a8:	93 ff       	sbrs	r25, 3
    41aa:	81 91       	ld	r24, Z+
    41ac:	7f 01       	movw	r14, r30
    41ae:	81 11       	cpse	r24, r1
    41b0:	b3 cf       	rjmp	.-154    	; 0x4118 <vfprintf+0x58>
    41b2:	98 2f       	mov	r25, r24
    41b4:	9f 7d       	andi	r25, 0xDF	; 223
    41b6:	95 54       	subi	r25, 0x45	; 69
    41b8:	93 30       	cpi	r25, 0x03	; 3
    41ba:	28 f4       	brcc	.+10     	; 0x41c6 <vfprintf+0x106>
    41bc:	0c 5f       	subi	r16, 0xFC	; 252
    41be:	1f 4f       	sbci	r17, 0xFF	; 255
    41c0:	9f e3       	ldi	r25, 0x3F	; 63
    41c2:	99 83       	std	Y+1, r25	; 0x01
    41c4:	0d c0       	rjmp	.+26     	; 0x41e0 <vfprintf+0x120>
    41c6:	83 36       	cpi	r24, 0x63	; 99
    41c8:	31 f0       	breq	.+12     	; 0x41d6 <vfprintf+0x116>
    41ca:	83 37       	cpi	r24, 0x73	; 115
    41cc:	71 f0       	breq	.+28     	; 0x41ea <vfprintf+0x12a>
    41ce:	83 35       	cpi	r24, 0x53	; 83
    41d0:	09 f0       	breq	.+2      	; 0x41d4 <vfprintf+0x114>
    41d2:	55 c0       	rjmp	.+170    	; 0x427e <vfprintf+0x1be>
    41d4:	20 c0       	rjmp	.+64     	; 0x4216 <vfprintf+0x156>
    41d6:	f8 01       	movw	r30, r16
    41d8:	80 81       	ld	r24, Z
    41da:	89 83       	std	Y+1, r24	; 0x01
    41dc:	0e 5f       	subi	r16, 0xFE	; 254
    41de:	1f 4f       	sbci	r17, 0xFF	; 255
    41e0:	88 24       	eor	r8, r8
    41e2:	83 94       	inc	r8
    41e4:	91 2c       	mov	r9, r1
    41e6:	53 01       	movw	r10, r6
    41e8:	12 c0       	rjmp	.+36     	; 0x420e <vfprintf+0x14e>
    41ea:	28 01       	movw	r4, r16
    41ec:	f2 e0       	ldi	r31, 0x02	; 2
    41ee:	4f 0e       	add	r4, r31
    41f0:	51 1c       	adc	r5, r1
    41f2:	f8 01       	movw	r30, r16
    41f4:	a0 80       	ld	r10, Z
    41f6:	b1 80       	ldd	r11, Z+1	; 0x01
    41f8:	36 fe       	sbrs	r3, 6
    41fa:	03 c0       	rjmp	.+6      	; 0x4202 <vfprintf+0x142>
    41fc:	69 2d       	mov	r22, r9
    41fe:	70 e0       	ldi	r23, 0x00	; 0
    4200:	02 c0       	rjmp	.+4      	; 0x4206 <vfprintf+0x146>
    4202:	6f ef       	ldi	r22, 0xFF	; 255
    4204:	7f ef       	ldi	r23, 0xFF	; 255
    4206:	c5 01       	movw	r24, r10
    4208:	38 d1       	rcall	.+624    	; 0x447a <strnlen>
    420a:	4c 01       	movw	r8, r24
    420c:	82 01       	movw	r16, r4
    420e:	f3 2d       	mov	r31, r3
    4210:	ff 77       	andi	r31, 0x7F	; 127
    4212:	3f 2e       	mov	r3, r31
    4214:	15 c0       	rjmp	.+42     	; 0x4240 <vfprintf+0x180>
    4216:	28 01       	movw	r4, r16
    4218:	22 e0       	ldi	r18, 0x02	; 2
    421a:	42 0e       	add	r4, r18
    421c:	51 1c       	adc	r5, r1
    421e:	f8 01       	movw	r30, r16
    4220:	a0 80       	ld	r10, Z
    4222:	b1 80       	ldd	r11, Z+1	; 0x01
    4224:	36 fe       	sbrs	r3, 6
    4226:	03 c0       	rjmp	.+6      	; 0x422e <vfprintf+0x16e>
    4228:	69 2d       	mov	r22, r9
    422a:	70 e0       	ldi	r23, 0x00	; 0
    422c:	02 c0       	rjmp	.+4      	; 0x4232 <vfprintf+0x172>
    422e:	6f ef       	ldi	r22, 0xFF	; 255
    4230:	7f ef       	ldi	r23, 0xFF	; 255
    4232:	c5 01       	movw	r24, r10
    4234:	17 d1       	rcall	.+558    	; 0x4464 <strnlen_P>
    4236:	4c 01       	movw	r8, r24
    4238:	f3 2d       	mov	r31, r3
    423a:	f0 68       	ori	r31, 0x80	; 128
    423c:	3f 2e       	mov	r3, r31
    423e:	82 01       	movw	r16, r4
    4240:	33 fc       	sbrc	r3, 3
    4242:	19 c0       	rjmp	.+50     	; 0x4276 <vfprintf+0x1b6>
    4244:	82 2d       	mov	r24, r2
    4246:	90 e0       	ldi	r25, 0x00	; 0
    4248:	88 16       	cp	r8, r24
    424a:	99 06       	cpc	r9, r25
    424c:	a0 f4       	brcc	.+40     	; 0x4276 <vfprintf+0x1b6>
    424e:	b6 01       	movw	r22, r12
    4250:	80 e2       	ldi	r24, 0x20	; 32
    4252:	90 e0       	ldi	r25, 0x00	; 0
    4254:	1d d1       	rcall	.+570    	; 0x4490 <fputc>
    4256:	2a 94       	dec	r2
    4258:	f5 cf       	rjmp	.-22     	; 0x4244 <vfprintf+0x184>
    425a:	f5 01       	movw	r30, r10
    425c:	37 fc       	sbrc	r3, 7
    425e:	85 91       	lpm	r24, Z+
    4260:	37 fe       	sbrs	r3, 7
    4262:	81 91       	ld	r24, Z+
    4264:	5f 01       	movw	r10, r30
    4266:	b6 01       	movw	r22, r12
    4268:	90 e0       	ldi	r25, 0x00	; 0
    426a:	12 d1       	rcall	.+548    	; 0x4490 <fputc>
    426c:	21 10       	cpse	r2, r1
    426e:	2a 94       	dec	r2
    4270:	21 e0       	ldi	r18, 0x01	; 1
    4272:	82 1a       	sub	r8, r18
    4274:	91 08       	sbc	r9, r1
    4276:	81 14       	cp	r8, r1
    4278:	91 04       	cpc	r9, r1
    427a:	79 f7       	brne	.-34     	; 0x425a <vfprintf+0x19a>
    427c:	e1 c0       	rjmp	.+450    	; 0x4440 <vfprintf+0x380>
    427e:	84 36       	cpi	r24, 0x64	; 100
    4280:	11 f0       	breq	.+4      	; 0x4286 <vfprintf+0x1c6>
    4282:	89 36       	cpi	r24, 0x69	; 105
    4284:	39 f5       	brne	.+78     	; 0x42d4 <vfprintf+0x214>
    4286:	f8 01       	movw	r30, r16
    4288:	37 fe       	sbrs	r3, 7
    428a:	07 c0       	rjmp	.+14     	; 0x429a <vfprintf+0x1da>
    428c:	60 81       	ld	r22, Z
    428e:	71 81       	ldd	r23, Z+1	; 0x01
    4290:	82 81       	ldd	r24, Z+2	; 0x02
    4292:	93 81       	ldd	r25, Z+3	; 0x03
    4294:	0c 5f       	subi	r16, 0xFC	; 252
    4296:	1f 4f       	sbci	r17, 0xFF	; 255
    4298:	08 c0       	rjmp	.+16     	; 0x42aa <vfprintf+0x1ea>
    429a:	60 81       	ld	r22, Z
    429c:	71 81       	ldd	r23, Z+1	; 0x01
    429e:	07 2e       	mov	r0, r23
    42a0:	00 0c       	add	r0, r0
    42a2:	88 0b       	sbc	r24, r24
    42a4:	99 0b       	sbc	r25, r25
    42a6:	0e 5f       	subi	r16, 0xFE	; 254
    42a8:	1f 4f       	sbci	r17, 0xFF	; 255
    42aa:	f3 2d       	mov	r31, r3
    42ac:	ff 76       	andi	r31, 0x6F	; 111
    42ae:	3f 2e       	mov	r3, r31
    42b0:	97 ff       	sbrs	r25, 7
    42b2:	09 c0       	rjmp	.+18     	; 0x42c6 <vfprintf+0x206>
    42b4:	90 95       	com	r25
    42b6:	80 95       	com	r24
    42b8:	70 95       	com	r23
    42ba:	61 95       	neg	r22
    42bc:	7f 4f       	sbci	r23, 0xFF	; 255
    42be:	8f 4f       	sbci	r24, 0xFF	; 255
    42c0:	9f 4f       	sbci	r25, 0xFF	; 255
    42c2:	f0 68       	ori	r31, 0x80	; 128
    42c4:	3f 2e       	mov	r3, r31
    42c6:	2a e0       	ldi	r18, 0x0A	; 10
    42c8:	30 e0       	ldi	r19, 0x00	; 0
    42ca:	a3 01       	movw	r20, r6
    42cc:	1d d1       	rcall	.+570    	; 0x4508 <__ultoa_invert>
    42ce:	88 2e       	mov	r8, r24
    42d0:	86 18       	sub	r8, r6
    42d2:	44 c0       	rjmp	.+136    	; 0x435c <vfprintf+0x29c>
    42d4:	85 37       	cpi	r24, 0x75	; 117
    42d6:	31 f4       	brne	.+12     	; 0x42e4 <vfprintf+0x224>
    42d8:	23 2d       	mov	r18, r3
    42da:	2f 7e       	andi	r18, 0xEF	; 239
    42dc:	b2 2e       	mov	r11, r18
    42de:	2a e0       	ldi	r18, 0x0A	; 10
    42e0:	30 e0       	ldi	r19, 0x00	; 0
    42e2:	25 c0       	rjmp	.+74     	; 0x432e <vfprintf+0x26e>
    42e4:	93 2d       	mov	r25, r3
    42e6:	99 7f       	andi	r25, 0xF9	; 249
    42e8:	b9 2e       	mov	r11, r25
    42ea:	8f 36       	cpi	r24, 0x6F	; 111
    42ec:	c1 f0       	breq	.+48     	; 0x431e <vfprintf+0x25e>
    42ee:	18 f4       	brcc	.+6      	; 0x42f6 <vfprintf+0x236>
    42f0:	88 35       	cpi	r24, 0x58	; 88
    42f2:	79 f0       	breq	.+30     	; 0x4312 <vfprintf+0x252>
    42f4:	ae c0       	rjmp	.+348    	; 0x4452 <vfprintf+0x392>
    42f6:	80 37       	cpi	r24, 0x70	; 112
    42f8:	19 f0       	breq	.+6      	; 0x4300 <vfprintf+0x240>
    42fa:	88 37       	cpi	r24, 0x78	; 120
    42fc:	21 f0       	breq	.+8      	; 0x4306 <vfprintf+0x246>
    42fe:	a9 c0       	rjmp	.+338    	; 0x4452 <vfprintf+0x392>
    4300:	e9 2f       	mov	r30, r25
    4302:	e0 61       	ori	r30, 0x10	; 16
    4304:	be 2e       	mov	r11, r30
    4306:	b4 fe       	sbrs	r11, 4
    4308:	0d c0       	rjmp	.+26     	; 0x4324 <vfprintf+0x264>
    430a:	fb 2d       	mov	r31, r11
    430c:	f4 60       	ori	r31, 0x04	; 4
    430e:	bf 2e       	mov	r11, r31
    4310:	09 c0       	rjmp	.+18     	; 0x4324 <vfprintf+0x264>
    4312:	34 fe       	sbrs	r3, 4
    4314:	0a c0       	rjmp	.+20     	; 0x432a <vfprintf+0x26a>
    4316:	29 2f       	mov	r18, r25
    4318:	26 60       	ori	r18, 0x06	; 6
    431a:	b2 2e       	mov	r11, r18
    431c:	06 c0       	rjmp	.+12     	; 0x432a <vfprintf+0x26a>
    431e:	28 e0       	ldi	r18, 0x08	; 8
    4320:	30 e0       	ldi	r19, 0x00	; 0
    4322:	05 c0       	rjmp	.+10     	; 0x432e <vfprintf+0x26e>
    4324:	20 e1       	ldi	r18, 0x10	; 16
    4326:	30 e0       	ldi	r19, 0x00	; 0
    4328:	02 c0       	rjmp	.+4      	; 0x432e <vfprintf+0x26e>
    432a:	20 e1       	ldi	r18, 0x10	; 16
    432c:	32 e0       	ldi	r19, 0x02	; 2
    432e:	f8 01       	movw	r30, r16
    4330:	b7 fe       	sbrs	r11, 7
    4332:	07 c0       	rjmp	.+14     	; 0x4342 <vfprintf+0x282>
    4334:	60 81       	ld	r22, Z
    4336:	71 81       	ldd	r23, Z+1	; 0x01
    4338:	82 81       	ldd	r24, Z+2	; 0x02
    433a:	93 81       	ldd	r25, Z+3	; 0x03
    433c:	0c 5f       	subi	r16, 0xFC	; 252
    433e:	1f 4f       	sbci	r17, 0xFF	; 255
    4340:	06 c0       	rjmp	.+12     	; 0x434e <vfprintf+0x28e>
    4342:	60 81       	ld	r22, Z
    4344:	71 81       	ldd	r23, Z+1	; 0x01
    4346:	80 e0       	ldi	r24, 0x00	; 0
    4348:	90 e0       	ldi	r25, 0x00	; 0
    434a:	0e 5f       	subi	r16, 0xFE	; 254
    434c:	1f 4f       	sbci	r17, 0xFF	; 255
    434e:	a3 01       	movw	r20, r6
    4350:	db d0       	rcall	.+438    	; 0x4508 <__ultoa_invert>
    4352:	88 2e       	mov	r8, r24
    4354:	86 18       	sub	r8, r6
    4356:	fb 2d       	mov	r31, r11
    4358:	ff 77       	andi	r31, 0x7F	; 127
    435a:	3f 2e       	mov	r3, r31
    435c:	36 fe       	sbrs	r3, 6
    435e:	0d c0       	rjmp	.+26     	; 0x437a <vfprintf+0x2ba>
    4360:	23 2d       	mov	r18, r3
    4362:	2e 7f       	andi	r18, 0xFE	; 254
    4364:	a2 2e       	mov	r10, r18
    4366:	89 14       	cp	r8, r9
    4368:	58 f4       	brcc	.+22     	; 0x4380 <vfprintf+0x2c0>
    436a:	34 fe       	sbrs	r3, 4
    436c:	0b c0       	rjmp	.+22     	; 0x4384 <vfprintf+0x2c4>
    436e:	32 fc       	sbrc	r3, 2
    4370:	09 c0       	rjmp	.+18     	; 0x4384 <vfprintf+0x2c4>
    4372:	83 2d       	mov	r24, r3
    4374:	8e 7e       	andi	r24, 0xEE	; 238
    4376:	a8 2e       	mov	r10, r24
    4378:	05 c0       	rjmp	.+10     	; 0x4384 <vfprintf+0x2c4>
    437a:	b8 2c       	mov	r11, r8
    437c:	a3 2c       	mov	r10, r3
    437e:	03 c0       	rjmp	.+6      	; 0x4386 <vfprintf+0x2c6>
    4380:	b8 2c       	mov	r11, r8
    4382:	01 c0       	rjmp	.+2      	; 0x4386 <vfprintf+0x2c6>
    4384:	b9 2c       	mov	r11, r9
    4386:	a4 fe       	sbrs	r10, 4
    4388:	0f c0       	rjmp	.+30     	; 0x43a8 <vfprintf+0x2e8>
    438a:	fe 01       	movw	r30, r28
    438c:	e8 0d       	add	r30, r8
    438e:	f1 1d       	adc	r31, r1
    4390:	80 81       	ld	r24, Z
    4392:	80 33       	cpi	r24, 0x30	; 48
    4394:	21 f4       	brne	.+8      	; 0x439e <vfprintf+0x2de>
    4396:	9a 2d       	mov	r25, r10
    4398:	99 7e       	andi	r25, 0xE9	; 233
    439a:	a9 2e       	mov	r10, r25
    439c:	09 c0       	rjmp	.+18     	; 0x43b0 <vfprintf+0x2f0>
    439e:	a2 fe       	sbrs	r10, 2
    43a0:	06 c0       	rjmp	.+12     	; 0x43ae <vfprintf+0x2ee>
    43a2:	b3 94       	inc	r11
    43a4:	b3 94       	inc	r11
    43a6:	04 c0       	rjmp	.+8      	; 0x43b0 <vfprintf+0x2f0>
    43a8:	8a 2d       	mov	r24, r10
    43aa:	86 78       	andi	r24, 0x86	; 134
    43ac:	09 f0       	breq	.+2      	; 0x43b0 <vfprintf+0x2f0>
    43ae:	b3 94       	inc	r11
    43b0:	a3 fc       	sbrc	r10, 3
    43b2:	10 c0       	rjmp	.+32     	; 0x43d4 <vfprintf+0x314>
    43b4:	a0 fe       	sbrs	r10, 0
    43b6:	06 c0       	rjmp	.+12     	; 0x43c4 <vfprintf+0x304>
    43b8:	b2 14       	cp	r11, r2
    43ba:	80 f4       	brcc	.+32     	; 0x43dc <vfprintf+0x31c>
    43bc:	28 0c       	add	r2, r8
    43be:	92 2c       	mov	r9, r2
    43c0:	9b 18       	sub	r9, r11
    43c2:	0d c0       	rjmp	.+26     	; 0x43de <vfprintf+0x31e>
    43c4:	b2 14       	cp	r11, r2
    43c6:	58 f4       	brcc	.+22     	; 0x43de <vfprintf+0x31e>
    43c8:	b6 01       	movw	r22, r12
    43ca:	80 e2       	ldi	r24, 0x20	; 32
    43cc:	90 e0       	ldi	r25, 0x00	; 0
    43ce:	60 d0       	rcall	.+192    	; 0x4490 <fputc>
    43d0:	b3 94       	inc	r11
    43d2:	f8 cf       	rjmp	.-16     	; 0x43c4 <vfprintf+0x304>
    43d4:	b2 14       	cp	r11, r2
    43d6:	18 f4       	brcc	.+6      	; 0x43de <vfprintf+0x31e>
    43d8:	2b 18       	sub	r2, r11
    43da:	02 c0       	rjmp	.+4      	; 0x43e0 <vfprintf+0x320>
    43dc:	98 2c       	mov	r9, r8
    43de:	21 2c       	mov	r2, r1
    43e0:	a4 fe       	sbrs	r10, 4
    43e2:	0f c0       	rjmp	.+30     	; 0x4402 <vfprintf+0x342>
    43e4:	b6 01       	movw	r22, r12
    43e6:	80 e3       	ldi	r24, 0x30	; 48
    43e8:	90 e0       	ldi	r25, 0x00	; 0
    43ea:	52 d0       	rcall	.+164    	; 0x4490 <fputc>
    43ec:	a2 fe       	sbrs	r10, 2
    43ee:	16 c0       	rjmp	.+44     	; 0x441c <vfprintf+0x35c>
    43f0:	a1 fc       	sbrc	r10, 1
    43f2:	03 c0       	rjmp	.+6      	; 0x43fa <vfprintf+0x33a>
    43f4:	88 e7       	ldi	r24, 0x78	; 120
    43f6:	90 e0       	ldi	r25, 0x00	; 0
    43f8:	02 c0       	rjmp	.+4      	; 0x43fe <vfprintf+0x33e>
    43fa:	88 e5       	ldi	r24, 0x58	; 88
    43fc:	90 e0       	ldi	r25, 0x00	; 0
    43fe:	b6 01       	movw	r22, r12
    4400:	0c c0       	rjmp	.+24     	; 0x441a <vfprintf+0x35a>
    4402:	8a 2d       	mov	r24, r10
    4404:	86 78       	andi	r24, 0x86	; 134
    4406:	51 f0       	breq	.+20     	; 0x441c <vfprintf+0x35c>
    4408:	a1 fe       	sbrs	r10, 1
    440a:	02 c0       	rjmp	.+4      	; 0x4410 <vfprintf+0x350>
    440c:	8b e2       	ldi	r24, 0x2B	; 43
    440e:	01 c0       	rjmp	.+2      	; 0x4412 <vfprintf+0x352>
    4410:	80 e2       	ldi	r24, 0x20	; 32
    4412:	a7 fc       	sbrc	r10, 7
    4414:	8d e2       	ldi	r24, 0x2D	; 45
    4416:	b6 01       	movw	r22, r12
    4418:	90 e0       	ldi	r25, 0x00	; 0
    441a:	3a d0       	rcall	.+116    	; 0x4490 <fputc>
    441c:	89 14       	cp	r8, r9
    441e:	30 f4       	brcc	.+12     	; 0x442c <vfprintf+0x36c>
    4420:	b6 01       	movw	r22, r12
    4422:	80 e3       	ldi	r24, 0x30	; 48
    4424:	90 e0       	ldi	r25, 0x00	; 0
    4426:	34 d0       	rcall	.+104    	; 0x4490 <fputc>
    4428:	9a 94       	dec	r9
    442a:	f8 cf       	rjmp	.-16     	; 0x441c <vfprintf+0x35c>
    442c:	8a 94       	dec	r8
    442e:	f3 01       	movw	r30, r6
    4430:	e8 0d       	add	r30, r8
    4432:	f1 1d       	adc	r31, r1
    4434:	80 81       	ld	r24, Z
    4436:	b6 01       	movw	r22, r12
    4438:	90 e0       	ldi	r25, 0x00	; 0
    443a:	2a d0       	rcall	.+84     	; 0x4490 <fputc>
    443c:	81 10       	cpse	r8, r1
    443e:	f6 cf       	rjmp	.-20     	; 0x442c <vfprintf+0x36c>
    4440:	22 20       	and	r2, r2
    4442:	09 f4       	brne	.+2      	; 0x4446 <vfprintf+0x386>
    4444:	4e ce       	rjmp	.-868    	; 0x40e2 <vfprintf+0x22>
    4446:	b6 01       	movw	r22, r12
    4448:	80 e2       	ldi	r24, 0x20	; 32
    444a:	90 e0       	ldi	r25, 0x00	; 0
    444c:	21 d0       	rcall	.+66     	; 0x4490 <fputc>
    444e:	2a 94       	dec	r2
    4450:	f7 cf       	rjmp	.-18     	; 0x4440 <vfprintf+0x380>
    4452:	f6 01       	movw	r30, r12
    4454:	86 81       	ldd	r24, Z+6	; 0x06
    4456:	97 81       	ldd	r25, Z+7	; 0x07
    4458:	02 c0       	rjmp	.+4      	; 0x445e <vfprintf+0x39e>
    445a:	8f ef       	ldi	r24, 0xFF	; 255
    445c:	9f ef       	ldi	r25, 0xFF	; 255
    445e:	2b 96       	adiw	r28, 0x0b	; 11
    4460:	e2 e1       	ldi	r30, 0x12	; 18
    4462:	e2 c0       	rjmp	.+452    	; 0x4628 <__epilogue_restores__>

00004464 <strnlen_P>:
    4464:	fc 01       	movw	r30, r24
    4466:	05 90       	lpm	r0, Z+
    4468:	61 50       	subi	r22, 0x01	; 1
    446a:	70 40       	sbci	r23, 0x00	; 0
    446c:	01 10       	cpse	r0, r1
    446e:	d8 f7       	brcc	.-10     	; 0x4466 <strnlen_P+0x2>
    4470:	80 95       	com	r24
    4472:	90 95       	com	r25
    4474:	8e 0f       	add	r24, r30
    4476:	9f 1f       	adc	r25, r31
    4478:	08 95       	ret

0000447a <strnlen>:
    447a:	fc 01       	movw	r30, r24
    447c:	61 50       	subi	r22, 0x01	; 1
    447e:	70 40       	sbci	r23, 0x00	; 0
    4480:	01 90       	ld	r0, Z+
    4482:	01 10       	cpse	r0, r1
    4484:	d8 f7       	brcc	.-10     	; 0x447c <strnlen+0x2>
    4486:	80 95       	com	r24
    4488:	90 95       	com	r25
    448a:	8e 0f       	add	r24, r30
    448c:	9f 1f       	adc	r25, r31
    448e:	08 95       	ret

00004490 <fputc>:
    4490:	0f 93       	push	r16
    4492:	1f 93       	push	r17
    4494:	cf 93       	push	r28
    4496:	df 93       	push	r29
    4498:	fb 01       	movw	r30, r22
    449a:	23 81       	ldd	r18, Z+3	; 0x03
    449c:	21 fd       	sbrc	r18, 1
    449e:	03 c0       	rjmp	.+6      	; 0x44a6 <fputc+0x16>
    44a0:	8f ef       	ldi	r24, 0xFF	; 255
    44a2:	9f ef       	ldi	r25, 0xFF	; 255
    44a4:	2c c0       	rjmp	.+88     	; 0x44fe <fputc+0x6e>
    44a6:	22 ff       	sbrs	r18, 2
    44a8:	16 c0       	rjmp	.+44     	; 0x44d6 <fputc+0x46>
    44aa:	46 81       	ldd	r20, Z+6	; 0x06
    44ac:	57 81       	ldd	r21, Z+7	; 0x07
    44ae:	24 81       	ldd	r18, Z+4	; 0x04
    44b0:	35 81       	ldd	r19, Z+5	; 0x05
    44b2:	42 17       	cp	r20, r18
    44b4:	53 07       	cpc	r21, r19
    44b6:	44 f4       	brge	.+16     	; 0x44c8 <fputc+0x38>
    44b8:	a0 81       	ld	r26, Z
    44ba:	b1 81       	ldd	r27, Z+1	; 0x01
    44bc:	9d 01       	movw	r18, r26
    44be:	2f 5f       	subi	r18, 0xFF	; 255
    44c0:	3f 4f       	sbci	r19, 0xFF	; 255
    44c2:	31 83       	std	Z+1, r19	; 0x01
    44c4:	20 83       	st	Z, r18
    44c6:	8c 93       	st	X, r24
    44c8:	26 81       	ldd	r18, Z+6	; 0x06
    44ca:	37 81       	ldd	r19, Z+7	; 0x07
    44cc:	2f 5f       	subi	r18, 0xFF	; 255
    44ce:	3f 4f       	sbci	r19, 0xFF	; 255
    44d0:	37 83       	std	Z+7, r19	; 0x07
    44d2:	26 83       	std	Z+6, r18	; 0x06
    44d4:	14 c0       	rjmp	.+40     	; 0x44fe <fputc+0x6e>
    44d6:	8b 01       	movw	r16, r22
    44d8:	ec 01       	movw	r28, r24
    44da:	fb 01       	movw	r30, r22
    44dc:	00 84       	ldd	r0, Z+8	; 0x08
    44de:	f1 85       	ldd	r31, Z+9	; 0x09
    44e0:	e0 2d       	mov	r30, r0
    44e2:	09 95       	icall
    44e4:	89 2b       	or	r24, r25
    44e6:	e1 f6       	brne	.-72     	; 0x44a0 <fputc+0x10>
    44e8:	d8 01       	movw	r26, r16
    44ea:	16 96       	adiw	r26, 0x06	; 6
    44ec:	8d 91       	ld	r24, X+
    44ee:	9c 91       	ld	r25, X
    44f0:	17 97       	sbiw	r26, 0x07	; 7
    44f2:	01 96       	adiw	r24, 0x01	; 1
    44f4:	17 96       	adiw	r26, 0x07	; 7
    44f6:	9c 93       	st	X, r25
    44f8:	8e 93       	st	-X, r24
    44fa:	16 97       	sbiw	r26, 0x06	; 6
    44fc:	ce 01       	movw	r24, r28
    44fe:	df 91       	pop	r29
    4500:	cf 91       	pop	r28
    4502:	1f 91       	pop	r17
    4504:	0f 91       	pop	r16
    4506:	08 95       	ret

00004508 <__ultoa_invert>:
    4508:	fa 01       	movw	r30, r20
    450a:	aa 27       	eor	r26, r26
    450c:	28 30       	cpi	r18, 0x08	; 8
    450e:	51 f1       	breq	.+84     	; 0x4564 <__ultoa_invert+0x5c>
    4510:	20 31       	cpi	r18, 0x10	; 16
    4512:	81 f1       	breq	.+96     	; 0x4574 <__ultoa_invert+0x6c>
    4514:	e8 94       	clt
    4516:	6f 93       	push	r22
    4518:	6e 7f       	andi	r22, 0xFE	; 254
    451a:	6e 5f       	subi	r22, 0xFE	; 254
    451c:	7f 4f       	sbci	r23, 0xFF	; 255
    451e:	8f 4f       	sbci	r24, 0xFF	; 255
    4520:	9f 4f       	sbci	r25, 0xFF	; 255
    4522:	af 4f       	sbci	r26, 0xFF	; 255
    4524:	b1 e0       	ldi	r27, 0x01	; 1
    4526:	3e d0       	rcall	.+124    	; 0x45a4 <__ultoa_invert+0x9c>
    4528:	b4 e0       	ldi	r27, 0x04	; 4
    452a:	3c d0       	rcall	.+120    	; 0x45a4 <__ultoa_invert+0x9c>
    452c:	67 0f       	add	r22, r23
    452e:	78 1f       	adc	r23, r24
    4530:	89 1f       	adc	r24, r25
    4532:	9a 1f       	adc	r25, r26
    4534:	a1 1d       	adc	r26, r1
    4536:	68 0f       	add	r22, r24
    4538:	79 1f       	adc	r23, r25
    453a:	8a 1f       	adc	r24, r26
    453c:	91 1d       	adc	r25, r1
    453e:	a1 1d       	adc	r26, r1
    4540:	6a 0f       	add	r22, r26
    4542:	71 1d       	adc	r23, r1
    4544:	81 1d       	adc	r24, r1
    4546:	91 1d       	adc	r25, r1
    4548:	a1 1d       	adc	r26, r1
    454a:	20 d0       	rcall	.+64     	; 0x458c <__ultoa_invert+0x84>
    454c:	09 f4       	brne	.+2      	; 0x4550 <__ultoa_invert+0x48>
    454e:	68 94       	set
    4550:	3f 91       	pop	r19
    4552:	2a e0       	ldi	r18, 0x0A	; 10
    4554:	26 9f       	mul	r18, r22
    4556:	11 24       	eor	r1, r1
    4558:	30 19       	sub	r19, r0
    455a:	30 5d       	subi	r19, 0xD0	; 208
    455c:	31 93       	st	Z+, r19
    455e:	de f6       	brtc	.-74     	; 0x4516 <__ultoa_invert+0xe>
    4560:	cf 01       	movw	r24, r30
    4562:	08 95       	ret
    4564:	46 2f       	mov	r20, r22
    4566:	47 70       	andi	r20, 0x07	; 7
    4568:	40 5d       	subi	r20, 0xD0	; 208
    456a:	41 93       	st	Z+, r20
    456c:	b3 e0       	ldi	r27, 0x03	; 3
    456e:	0f d0       	rcall	.+30     	; 0x458e <__ultoa_invert+0x86>
    4570:	c9 f7       	brne	.-14     	; 0x4564 <__ultoa_invert+0x5c>
    4572:	f6 cf       	rjmp	.-20     	; 0x4560 <__ultoa_invert+0x58>
    4574:	46 2f       	mov	r20, r22
    4576:	4f 70       	andi	r20, 0x0F	; 15
    4578:	40 5d       	subi	r20, 0xD0	; 208
    457a:	4a 33       	cpi	r20, 0x3A	; 58
    457c:	18 f0       	brcs	.+6      	; 0x4584 <__ultoa_invert+0x7c>
    457e:	49 5d       	subi	r20, 0xD9	; 217
    4580:	31 fd       	sbrc	r19, 1
    4582:	40 52       	subi	r20, 0x20	; 32
    4584:	41 93       	st	Z+, r20
    4586:	02 d0       	rcall	.+4      	; 0x458c <__ultoa_invert+0x84>
    4588:	a9 f7       	brne	.-22     	; 0x4574 <__ultoa_invert+0x6c>
    458a:	ea cf       	rjmp	.-44     	; 0x4560 <__ultoa_invert+0x58>
    458c:	b4 e0       	ldi	r27, 0x04	; 4
    458e:	a6 95       	lsr	r26
    4590:	97 95       	ror	r25
    4592:	87 95       	ror	r24
    4594:	77 95       	ror	r23
    4596:	67 95       	ror	r22
    4598:	ba 95       	dec	r27
    459a:	c9 f7       	brne	.-14     	; 0x458e <__ultoa_invert+0x86>
    459c:	00 97       	sbiw	r24, 0x00	; 0
    459e:	61 05       	cpc	r22, r1
    45a0:	71 05       	cpc	r23, r1
    45a2:	08 95       	ret
    45a4:	9b 01       	movw	r18, r22
    45a6:	ac 01       	movw	r20, r24
    45a8:	0a 2e       	mov	r0, r26
    45aa:	06 94       	lsr	r0
    45ac:	57 95       	ror	r21
    45ae:	47 95       	ror	r20
    45b0:	37 95       	ror	r19
    45b2:	27 95       	ror	r18
    45b4:	ba 95       	dec	r27
    45b6:	c9 f7       	brne	.-14     	; 0x45aa <__ultoa_invert+0xa2>
    45b8:	62 0f       	add	r22, r18
    45ba:	73 1f       	adc	r23, r19
    45bc:	84 1f       	adc	r24, r20
    45be:	95 1f       	adc	r25, r21
    45c0:	a0 1d       	adc	r26, r0
    45c2:	08 95       	ret

000045c4 <eeprom_read_byte>:
    45c4:	f9 99       	sbic	0x1f, 1	; 31
    45c6:	fe cf       	rjmp	.-4      	; 0x45c4 <eeprom_read_byte>
    45c8:	92 bd       	out	0x22, r25	; 34
    45ca:	81 bd       	out	0x21, r24	; 33
    45cc:	f8 9a       	sbi	0x1f, 0	; 31
    45ce:	99 27       	eor	r25, r25
    45d0:	80 b5       	in	r24, 0x20	; 32
    45d2:	08 95       	ret

000045d4 <eeprom_write_byte>:
    45d4:	26 2f       	mov	r18, r22

000045d6 <eeprom_write_r18>:
    45d6:	f9 99       	sbic	0x1f, 1	; 31
    45d8:	fe cf       	rjmp	.-4      	; 0x45d6 <eeprom_write_r18>
    45da:	1f ba       	out	0x1f, r1	; 31
    45dc:	92 bd       	out	0x22, r25	; 34
    45de:	81 bd       	out	0x21, r24	; 33
    45e0:	20 bd       	out	0x20, r18	; 32
    45e2:	0f b6       	in	r0, 0x3f	; 63
    45e4:	f8 94       	cli
    45e6:	fa 9a       	sbi	0x1f, 2	; 31
    45e8:	f9 9a       	sbi	0x1f, 1	; 31
    45ea:	0f be       	out	0x3f, r0	; 63
    45ec:	01 96       	adiw	r24, 0x01	; 1
    45ee:	08 95       	ret

000045f0 <__prologue_saves__>:
    45f0:	2f 92       	push	r2
    45f2:	3f 92       	push	r3
    45f4:	4f 92       	push	r4
    45f6:	5f 92       	push	r5
    45f8:	6f 92       	push	r6
    45fa:	7f 92       	push	r7
    45fc:	8f 92       	push	r8
    45fe:	9f 92       	push	r9
    4600:	af 92       	push	r10
    4602:	bf 92       	push	r11
    4604:	cf 92       	push	r12
    4606:	df 92       	push	r13
    4608:	ef 92       	push	r14
    460a:	ff 92       	push	r15
    460c:	0f 93       	push	r16
    460e:	1f 93       	push	r17
    4610:	cf 93       	push	r28
    4612:	df 93       	push	r29
    4614:	cd b7       	in	r28, 0x3d	; 61
    4616:	de b7       	in	r29, 0x3e	; 62
    4618:	ca 1b       	sub	r28, r26
    461a:	db 0b       	sbc	r29, r27
    461c:	0f b6       	in	r0, 0x3f	; 63
    461e:	f8 94       	cli
    4620:	de bf       	out	0x3e, r29	; 62
    4622:	0f be       	out	0x3f, r0	; 63
    4624:	cd bf       	out	0x3d, r28	; 61
    4626:	09 94       	ijmp

00004628 <__epilogue_restores__>:
    4628:	2a 88       	ldd	r2, Y+18	; 0x12
    462a:	39 88       	ldd	r3, Y+17	; 0x11
    462c:	48 88       	ldd	r4, Y+16	; 0x10
    462e:	5f 84       	ldd	r5, Y+15	; 0x0f
    4630:	6e 84       	ldd	r6, Y+14	; 0x0e
    4632:	7d 84       	ldd	r7, Y+13	; 0x0d
    4634:	8c 84       	ldd	r8, Y+12	; 0x0c
    4636:	9b 84       	ldd	r9, Y+11	; 0x0b
    4638:	aa 84       	ldd	r10, Y+10	; 0x0a
    463a:	b9 84       	ldd	r11, Y+9	; 0x09
    463c:	c8 84       	ldd	r12, Y+8	; 0x08
    463e:	df 80       	ldd	r13, Y+7	; 0x07
    4640:	ee 80       	ldd	r14, Y+6	; 0x06
    4642:	fd 80       	ldd	r15, Y+5	; 0x05
    4644:	0c 81       	ldd	r16, Y+4	; 0x04
    4646:	1b 81       	ldd	r17, Y+3	; 0x03
    4648:	aa 81       	ldd	r26, Y+2	; 0x02
    464a:	b9 81       	ldd	r27, Y+1	; 0x01
    464c:	ce 0f       	add	r28, r30
    464e:	d1 1d       	adc	r29, r1
    4650:	0f b6       	in	r0, 0x3f	; 63
    4652:	f8 94       	cli
    4654:	de bf       	out	0x3e, r29	; 62
    4656:	0f be       	out	0x3f, r0	; 63
    4658:	cd bf       	out	0x3d, r28	; 61
    465a:	ed 01       	movw	r28, r26
    465c:	08 95       	ret

0000465e <_exit>:
    465e:	f8 94       	cli

00004660 <__stop_program>:
    4660:	ff cf       	rjmp	.-2      	; 0x4660 <__stop_program>
